 lomox

 Timestamp is 55689717 (Sat May 30 00:43:03 2015)

 Preferred load address is 10000000

 Start         Length     Name                   Class
 0001:00000000 00006005H .text$di                CODE
 0001:00006010 00029853H .text$mn                CODE
 0001:0002f870 00005ccdH .text$x                 CODE
 0001:00035540 000021eaH .text$yd                CODE
 0002:00000000 00000104H .CRT$XCA                DATA
 0002:00000104 000004a3H .CRT$XCU                DATA
 0002:000005a8 00000104H .CRT$XCZ                DATA
 0002:000006ac 00000104H .CRT$XIA                DATA
 0002:000007b0 00000104H .CRT$XIAA               DATA
 0002:000008b4 00000104H .CRT$XIC                DATA
 0002:000009b8 00000104H .CRT$XIZ                DATA
 0002:00000ac0 00005f50H .rdata                  DATA
 0002:00006a10 00000173H .rdata$debug            DATA
 0002:00006b84 00001312H .rdata$r                DATA
 0002:00007ea0 00000499H .rdata$sxdata           DATA
 0002:0000833c 00000104H .rtc$IAA                DATA
 0002:00008440 00000104H .rtc$IZZ                DATA
 0002:00008544 00000104H .rtc$TAA                DATA
 0002:00008648 00000104H .rtc$TZZ                DATA
 0002:00008750 00005526H .xdata$x                DATA
 0002:0000dc80 000039c4H .edata                  DATA
 0003:00000000 00000118H .data                   DATA
 0003:00000118 00000774H .data$r                 DATA
 0003:00000890 00000694H .bss                    DATA
 0004:00000000 00000decH .idata$5                DATA
 0004:00000dec 000000f0H .idata$2                DATA
 0004:00000edc 00000014H .idata$3                DATA
 0004:00000ef0 00000decH .idata$4                DATA
 0004:00001cdc 00007493H .idata$6                DATA
 0005:00000000 000001c0H .rsrc$01                DATA
 0005:000001c0 00000683H .rsrc$02                DATA

  Address         Publics by Value              Rva+Base       Lib:Object

 0000:00000000       ___guard_flags             00000000     <absolute>
 0000:00000000       ___guard_fids_table        00000000     <absolute>
 0000:00000000       ___guard_fids_count        00000000     <absolute>
 0000:00000000       __except_list              00000000     <absolute>
 0000:000000c0       ___safe_se_handler_count   000000c0     <absolute>
 0000:00009876       __ldused                   00009876     <absolute>
 0000:00009876       __fltused                  00009876     <absolute>
 0000:00000000       ___ImageBase               10000000     <linker-defined>
 0001:00006010       ?metaObject@LxBaseWin@@UBEPBUQMetaObject@@XZ 10007010 f   moc_lxbasewin.obj
 0001:00006050       ?qt_metacast@LxBaseWin@@UAEPAXPBD@Z 10007050 f   moc_lxbasewin.obj
 0001:00006090       ?qt_metacall@LxBaseWin@@UAEHW4Call@QMetaObject@@HPAPAX@Z 10007090 f   moc_lxbasewin.obj
 0001:00006120       ?qt_static_metacall@LxBaseWin@@CAXPAVQObject@@W4Call@QMetaObject@@HPAPAX@Z 10007120 f   moc_lxbasewin.obj
 0001:000061b0       ??$_Allocate@D@std@@YAPADIPAD@Z 100071b0 f i moc_lxbasewin.obj
 0001:00006200       ??$addressof@D@std@@YAPADAAD@Z 10007200 f i moc_lxbasewin.obj
 0001:00006210       ??$construct@PADAAPAD@?$_Wrap_alloc@V?$allocator@D@std@@@std@@QAEXPAPADAAPAD@Z 10007210 f i moc_lxbasewin.obj
 0001:00006250       ??$construct@PADAAPAD@?$allocator@D@std@@QAEXPAPADAAPAD@Z 10007250 f i moc_lxbasewin.obj
 0001:00006300       ??$construct@PADAAPAD@?$allocator_traits@V?$allocator@D@std@@@std@@SAXAAV?$allocator@D@1@PAPADAAPAD@Z 10007300 f i moc_lxbasewin.obj
 0001:00006330       ??$destroy@PAD@?$_Wrap_alloc@V?$allocator@D@std@@@std@@QAEXPAPAD@Z 10007330 f i moc_lxbasewin.obj
 0001:00006360       ??$destroy@PAD@?$allocator@D@std@@QAEXPAPAD@Z 10007360 f i moc_lxbasewin.obj
 0001:00006370       ??$destroy@PAD@?$allocator_traits@V?$allocator@D@std@@@std@@SAXAAV?$allocator@D@1@PAPAD@Z 10007370 f i moc_lxbasewin.obj
 0001:00006390       ??$forward@AAPAD@std@@YAAAPADAAPAD@Z 10007390 f i moc_lxbasewin.obj
 0001:000063a0       ??0?$_String_alloc@$0A@U?$_String_base_types@DV?$allocator@D@std@@@std@@@std@@QAE@ABV?$allocator@D@1@@Z 100073a0 f i moc_lxbasewin.obj
 0001:000063c0       ??0?$_String_val@U?$_Simple_types@D@std@@@std@@QAE@XZ 100073c0 f i moc_lxbasewin.obj
 0001:000063f0       ??0?$_Wrap_alloc@V?$allocator@D@std@@@std@@QAE@XZ 100073f0 f i moc_lxbasewin.obj
 0001:00006410       ??0?$allocator@D@std@@QAE@XZ 10007410 f i moc_lxbasewin.obj
 0001:00006430       ??0?$basic_string@DU?$char_traits@D@std@@V?$allocator@D@2@@std@@QAE@PBD@Z 10007430 f i moc_lxbasewin.obj
 0001:00006480       ??0_Generic_error_category@std@@QAE@XZ 10007480 f i moc_lxbasewin.obj
 0001:000064b0       ??0_Ignore@std@@QAE@XZ     100074b0 f i moc_lxbasewin.obj
 0001:000064d0       ??0_Iostream_error_category@std@@QAE@XZ 100074d0 f i moc_lxbasewin.obj
 0001:00006500       ??0_System_error_category@std@@QAE@XZ 10007500 f i moc_lxbasewin.obj
 0001:00006530       ??0error_category@std@@QAE@XZ 10007530 f i moc_lxbasewin.obj
 0001:00006550       ??0error_condition@std@@QAE@HABVerror_category@1@@Z 10007550 f i moc_lxbasewin.obj
 0001:00006580       ??1_Generic_error_category@std@@UAE@XZ 10007580 f i moc_lxbasewin.obj
 0001:000065a0       ??1_Iostream_error_category@std@@UAE@XZ 100075a0 f i moc_lxbasewin.obj
 0001:000065c0       ??1_System_error_category@std@@UAE@XZ 100075c0 f i moc_lxbasewin.obj
 0001:000065e0       ??1error_category@std@@UAE@XZ 100075e0 f i moc_lxbasewin.obj
 0001:00006600       ??2@YAPAXIPAX@Z            10007600 f i moc_lxbasewin.obj
 0001:00006610       ??3@YAXPAX0@Z              10007610 f i moc_lxbasewin.obj
 0001:00006620       ??8error_category@std@@QBE_NABV01@@Z 10007620 f i moc_lxbasewin.obj
 0001:00006660       ??8error_condition@std@@QBE_NABV01@@Z 10007660 f i moc_lxbasewin.obj
 0001:000066d0       ??C?$QScopedPointer@VQObjectData@@U?$QScopedPointerDeleter@VQObjectData@@@@@@QBEPAVQObjectData@@XZ 100076d0 f i moc_lxbasewin.obj
 0001:000066f0       ??_FLxBaseWin@@QAEXXZ      100076f0 f i moc_lxbasewin.obj
 0001:00006710       ??_FLxOperate@@QAEXXZ      10007710 f i moc_lxbasewin.obj
 0001:00006750       ??_E_Generic_error_category@std@@UAEPAXI@Z 10007750 f i moc_lxbasewin.obj
 0001:00006750       ??_G_Generic_error_category@std@@UAEPAXI@Z 10007750 f i moc_lxbasewin.obj
 0001:00006790       ??_G_Iostream_error_category@std@@UAEPAXI@Z 10007790 f i moc_lxbasewin.obj
 0001:00006790       ??_E_Iostream_error_category@std@@UAEPAXI@Z 10007790 f i moc_lxbasewin.obj
 0001:000067d0       ??_E_System_error_category@std@@UAEPAXI@Z 100077d0 f i moc_lxbasewin.obj
 0001:000067d0       ??_G_System_error_category@std@@UAEPAXI@Z 100077d0 f i moc_lxbasewin.obj
 0001:00006810       ??_Eerror_category@std@@UAEPAXI@Z 10007810 f i moc_lxbasewin.obj
 0001:00006810       ??_Gerror_category@std@@UAEPAXI@Z 10007810 f i moc_lxbasewin.obj
 0001:00006850       ?_Copy@?$basic_string@DU?$char_traits@D@std@@V?$allocator@D@2@@std@@QAEXII@Z 10007850 f i moc_lxbasewin.obj
 0001:00006a80       ?_Eos@?$basic_string@DU?$char_traits@D@std@@V?$allocator@D@2@@std@@QAEXI@Z 10007a80 f i moc_lxbasewin.obj
 0001:00006ad0       ?_Getal@?$_String_alloc@$0A@U?$_String_base_types@DV?$allocator@D@std@@@std@@@std@@QBE?AU?$_Wrap_alloc@V?$allocator@D@std@@@2@XZ 10007ad0 f i moc_lxbasewin.obj
 0001:00006af0       ?_Grow@?$basic_string@DU?$char_traits@D@std@@V?$allocator@D@2@@std@@QAE_NI_N@Z 10007af0 f i moc_lxbasewin.obj
 0001:00006bc0       ?_Inside@?$basic_string@DU?$char_traits@D@std@@V?$allocator@D@2@@std@@QAE_NPBD@Z 10007bc0 f i moc_lxbasewin.obj
 0001:00006c10       ?_Myptr@?$_String_val@U?$_Simple_types@D@std@@@std@@QAEPADXZ 10007c10 f i moc_lxbasewin.obj
 0001:00006c50       ?_Myptr@?$_String_val@U?$_Simple_types@D@std@@@std@@QBEPBDXZ 10007c50 f i moc_lxbasewin.obj
 0001:00006c90       ?_Tidy@?$basic_string@DU?$char_traits@D@std@@V?$allocator@D@2@@std@@QAEX_NI@Z 10007c90 f i moc_lxbasewin.obj
 0001:00006d60       ?_Xlen@?$basic_string@DU?$char_traits@D@std@@V?$allocator@D@2@@std@@QBEXXZ 10007d60 f i moc_lxbasewin.obj
 0001:00006d80       ?_Xran@?$basic_string@DU?$char_traits@D@std@@V?$allocator@D@2@@std@@QBEXXZ 10007d80 f i moc_lxbasewin.obj
 0001:00006da0       ?allocate@?$_Wrap_alloc@V?$allocator@D@std@@@std@@QAEPADI@Z 10007da0 f i moc_lxbasewin.obj
 0001:00006dc0       ?allocate@?$allocator@D@std@@QAEPADI@Z 10007dc0 f i moc_lxbasewin.obj
 0001:00006df0       ?assign@?$basic_string@DU?$char_traits@D@std@@V?$allocator@D@2@@std@@QAEAAV12@ABV12@II@Z 10007df0 f i moc_lxbasewin.obj
 0001:00006ed0       ?assign@?$basic_string@DU?$char_traits@D@std@@V?$allocator@D@2@@std@@QAEAAV12@PBD@Z 10007ed0 f i moc_lxbasewin.obj
 0001:00006f00       ?assign@?$basic_string@DU?$char_traits@D@std@@V?$allocator@D@2@@std@@QAEAAV12@PBDI@Z 10007f00 f i moc_lxbasewin.obj
 0001:00006fa0       ?assign@?$char_traits@D@std@@SAXAADABD@Z 10007fa0 f i moc_lxbasewin.obj
 0001:00006fc0       ?category@error_code@std@@QBEABVerror_category@2@XZ 10007fc0 f i moc_lxbasewin.obj
 0001:00006fe0       ?category@error_condition@std@@QBEABVerror_category@2@XZ 10007fe0 f i moc_lxbasewin.obj
 0001:00007000       ?copy@?$char_traits@D@std@@SAPADPADPBDI@Z 10008000 f i moc_lxbasewin.obj
 0001:00007040       ?deallocate@?$_Wrap_alloc@V?$allocator@D@std@@@std@@QAEXPADI@Z 10008040 f i moc_lxbasewin.obj
 0001:00007070       ?deallocate@?$allocator@D@std@@QAEXPADI@Z 10008070 f i moc_lxbasewin.obj
 0001:00007090       ?default_error_condition@_System_error_category@std@@UBE?AVerror_condition@2@H@Z 10008090 f i moc_lxbasewin.obj
 0001:000070f0       ?default_error_condition@error_category@std@@UBE?AVerror_condition@2@H@Z 100080f0 f i moc_lxbasewin.obj
 0001:00007120       ?equivalent@error_category@std@@UBE_NABVerror_code@2@H@Z 10008120 f i moc_lxbasewin.obj
 0001:00007180       ?equivalent@error_category@std@@UBE_NHABVerror_condition@2@@Z 10008180 f i moc_lxbasewin.obj
 0001:000071c0       ?erase@?$basic_string@DU?$char_traits@D@std@@V?$allocator@D@2@@std@@QAEAAV12@I@Z 100081c0 f i moc_lxbasewin.obj
 0001:00007200       ?erase@?$basic_string@DU?$char_traits@D@std@@V?$allocator@D@2@@std@@QAEAAV12@II@Z 10008200 f i moc_lxbasewin.obj
 0001:000072b0       ?generic_category@std@@YAABVerror_category@1@XZ 100082b0 f i moc_lxbasewin.obj
 0001:000072c0       ?length@?$char_traits@D@std@@SAIPBD@Z 100082c0 f i moc_lxbasewin.obj
 0001:00007300       ?max_size@?$_Wrap_alloc@V?$allocator@D@std@@@std@@QBEIXZ 10008300 f i moc_lxbasewin.obj
 0001:00007320       ?max_size@?$allocator@D@std@@QBEIXZ 10008320 f i moc_lxbasewin.obj
 0001:00007340       ?max_size@?$allocator_traits@V?$allocator@D@std@@@std@@SAIABV?$allocator@D@2@@Z 10008340 f i moc_lxbasewin.obj
 0001:00007350       ?max_size@?$basic_string@DU?$char_traits@D@std@@V?$allocator@D@2@@std@@QBEIXZ 10008350 f i moc_lxbasewin.obj
 0001:000073a0       ?message@_Generic_error_category@std@@UBE?AV?$basic_string@DU?$char_traits@D@std@@V?$allocator@D@2@@2@H@Z 100083a0 f i moc_lxbasewin.obj
 0001:00007410       ?message@_Iostream_error_category@std@@UBE?AV?$basic_string@DU?$char_traits@D@std@@V?$allocator@D@2@@2@H@Z 10008410 f i moc_lxbasewin.obj
 0001:00007480       ?message@_System_error_category@std@@UBE?AV?$basic_string@DU?$char_traits@D@std@@V?$allocator@D@2@@2@H@Z 10008480 f i moc_lxbasewin.obj
 0001:000074f0       ?move@?$char_traits@D@std@@SAPADPADPBDI@Z 100084f0 f i moc_lxbasewin.obj
 0001:00007530       ?name@_Generic_error_category@std@@UBEPBDXZ 10008530 f i moc_lxbasewin.obj
 0001:00007550       ?name@_Iostream_error_category@std@@UBEPBDXZ 10008550 f i moc_lxbasewin.obj
 0001:00007570       ?name@_System_error_category@std@@UBEPBDXZ 10008570 f i moc_lxbasewin.obj
 0001:00007590       ?qt_noop@@YAXXZ            10008590 f i moc_lxbasewin.obj
 0001:000075a0       ?size@?$basic_string@DU?$char_traits@D@std@@V?$allocator@D@2@@std@@QBEIXZ 100085a0 f i moc_lxbasewin.obj
 0001:000075c0       ?system_category@std@@YAABVerror_category@1@XZ 100085c0 f i moc_lxbasewin.obj
 0001:000075d0       ?tr@LxBaseWin@@SA?AVQString@@PBD0H@Z 100085d0 f i moc_lxbasewin.obj
 0001:00007620       ?tr@LxOperate@@SA?AVQString@@PBD0H@Z 10008620 f i moc_lxbasewin.obj
 0001:00007670       ?trUtf8@LxBaseWin@@SA?AVQString@@PBD0H@Z 10008670 f i moc_lxbasewin.obj
 0001:000076c0       ?trUtf8@LxOperate@@SA?AVQString@@PBD0H@Z 100086c0 f i moc_lxbasewin.obj
 0001:00007710       ?value@error_code@std@@QBEHXZ 10008710 f i moc_lxbasewin.obj
 0001:00007730       ?value@error_condition@std@@QBEHXZ 10008730 f i moc_lxbasewin.obj
 0001:00007750       _hypot                     10008750 f i moc_lxbasewin.obj
 0001:00007790       ?metaObject@LxCoreApplication@@UBEPBUQMetaObject@@XZ 10008790 f   moc_lxcoreapplication.obj
 0001:000077d0       ?qt_metacast@LxCoreApplication@@UAEPAXPBD@Z 100087d0 f   moc_lxcoreapplication.obj
 0001:00007810       ?qt_metacall@LxCoreApplication@@UAEHW4Call@QMetaObject@@HPAPAX@Z 10008810 f   moc_lxcoreapplication.obj
 0001:00007b00       ?qt_static_metacall@LxCoreApplication@@CAXPAVQObject@@W4Call@QMetaObject@@HPAPAX@Z 10008b00 f   moc_lxcoreapplication.obj
 0001:00008000       ??0LxCoreApplicationPrivate@@AAE@XZ 10009000 f i moc_lxcoreapplication.obj
 0001:00008060       ??_ELxCoreApplicationPrivate@@UAEPAXI@Z 10009060 f i moc_lxcoreapplication.obj
 0001:000080f0       ??_FLxDialogs@@QAEXXZ      100090f0 f i moc_lxcoreapplication.obj
 0001:00008110       ??_FLxFile@@QAEXXZ         10009110 f i moc_lxcoreapplication.obj
 0001:00008130       ??_FLxLibrary@@QAEXXZ      10009130 f i moc_lxcoreapplication.obj
 0001:00008150       ??_FLxMainWindow@@QAEXXZ   10009150 f i moc_lxcoreapplication.obj
 0001:00008170       ??_GLxCoreApplicationPrivate@@UAEPAXI@Z 10009170 f i moc_lxcoreapplication.obj
 0001:000081b0       ?instance@LxCoreApplicationPrivate@@SAPAV1@XZ 100091b0 f i moc_lxcoreapplication.obj
 0001:00008260       ?loadProgress@LxDialogBase@@AAEXH@Z 10009260 f i moc_lxcoreapplication.obj
 0001:00008270       ?loadStarted@LxDialogBase@@AAEXXZ 10009270 f i moc_lxcoreapplication.obj
 0001:00008280       ?tr@LxCoreApplication@@SA?AVQString@@PBD0H@Z 10009280 f i moc_lxcoreapplication.obj
 0001:000082d0       ?tr@LxCoreApplicationPrivate@@SA?AVQString@@PBD0H@Z 100092d0 f i moc_lxcoreapplication.obj
 0001:00008320       ?tr@LxDialogBase@@SA?AVQString@@PBD0H@Z 10009320 f i moc_lxcoreapplication.obj
 0001:00008370       ?tr@LxDialogs@@SA?AVQString@@PBD0H@Z 10009370 f i moc_lxcoreapplication.obj
 0001:000083c0       ?tr@LxFile@@SA?AVQString@@PBD0H@Z 100093c0 f i moc_lxcoreapplication.obj
 0001:00008410       ?tr@LxLibrary@@SA?AVQString@@PBD0H@Z 10009410 f i moc_lxcoreapplication.obj
 0001:00008460       ?tr@LxMainWindow@@SA?AVQString@@PBD0H@Z 10009460 f i moc_lxcoreapplication.obj
 0001:000084b0       ?trUtf8@LxCoreApplication@@SA?AVQString@@PBD0H@Z 100094b0 f i moc_lxcoreapplication.obj
 0001:00008500       ?trUtf8@LxCoreApplicationPrivate@@SA?AVQString@@PBD0H@Z 10009500 f i moc_lxcoreapplication.obj
 0001:00008550       ?trUtf8@LxDialogBase@@SA?AVQString@@PBD0H@Z 10009550 f i moc_lxcoreapplication.obj
 0001:000085a0       ?trUtf8@LxDialogs@@SA?AVQString@@PBD0H@Z 100095a0 f i moc_lxcoreapplication.obj
 0001:000085f0       ?trUtf8@LxFile@@SA?AVQString@@PBD0H@Z 100095f0 f i moc_lxcoreapplication.obj
 0001:00008640       ?trUtf8@LxLibrary@@SA?AVQString@@PBD0H@Z 10009640 f i moc_lxcoreapplication.obj
 0001:00008690       ?trUtf8@LxMainWindow@@SA?AVQString@@PBD0H@Z 10009690 f i moc_lxcoreapplication.obj
 0001:000086e0       ?metaObject@LxCoreApplicationPrivate@@UBEPBUQMetaObject@@XZ 100096e0 f   moc_lxcoreprivate.obj
 0001:00008720       ?qt_metacast@LxCoreApplicationPrivate@@UAEPAXPBD@Z 10009720 f   moc_lxcoreprivate.obj
 0001:00008760       ?qt_metacall@LxCoreApplicationPrivate@@UAEHW4Call@QMetaObject@@HPAPAX@Z 10009760 f   moc_lxcoreprivate.obj
 0001:000087a0       ?qt_static_metacall@LxCoreApplicationPrivate@@CAXPAVQObject@@W4Call@QMetaObject@@HPAPAX@Z 100097a0 f   moc_lxcoreprivate.obj
 0001:000087e0       ?metaObject@LxDialogBase@@UBEPBUQMetaObject@@XZ 100097e0 f   moc_lxdialogoperate.obj
 0001:00008820       ?qt_metacast@LxDialogBase@@UAEPAXPBD@Z 10009820 f   moc_lxdialogoperate.obj
 0001:00008860       ?qt_metacall@LxDialogBase@@UAEHW4Call@QMetaObject@@HPAPAX@Z 10009860 f   moc_lxdialogoperate.obj
 0001:000088f0       ?qt_static_metacall@LxDialogBase@@CAXPAVQObject@@W4Call@QMetaObject@@HPAPAX@Z 100098f0 f   moc_lxdialogoperate.obj
 0001:00009330       ??$acquireMemoryFence@H@?$QGenericAtomicOps@U?$QAtomicOpsBySize@$03@@@@SAXABH@Z 1000a330 f i moc_lxdialogoperate.obj
 0001:00009350       ??$loadAcquire@H@?$QGenericAtomicOps@U?$QAtomicOpsBySize@$03@@@@SAHABH@Z 1000a350 f i moc_lxdialogoperate.obj
 0001:00009380       ??$orderedMemoryFence@H@?$QGenericAtomicOps@U?$QAtomicOpsBySize@$03@@@@SAXABH@Z 1000a380 f i moc_lxdialogoperate.obj
 0001:00009390       ??$qMetaTypeId@VQNetworkRequest@@@@YAHXZ 1000a390 f i moc_lxdialogoperate.obj
 0001:000093a0       ??$qRegisterMetaType@VQNetworkRequest@@@@YAHPBDPAVQNetworkRequest@@W4DefinedType@?$MetaTypeDefinedHelper@VQNetworkRequest@@$00@QtPrivate@@@Z 1000a3a0 f i moc_lxdialogoperate.obj
 0001:00009440       ??$qRegisterMetaType@VQNetworkRequest@@@@YAHXZ 1000a440 f i moc_lxdialogoperate.obj
 0001:00009450       ??$qRegisterNormalizedMetaType@VQNetworkRequest@@@@YAHABVQByteArray@@PAVQNetworkRequest@@W4DefinedType@?$MetaTypeDefinedHelper@VQNetworkRequest@@$00@QtPrivate@@@Z 1000a450 f i moc_lxdialogoperate.obj
 0001:00009560       ??$releaseMemoryFence@H@?$QGenericAtomicOps@U?$QAtomicOpsBySize@$03@@@@SAXABH@Z 1000a560 f i moc_lxdialogoperate.obj
 0001:00009580       ??$storeRelease@HH@?$QGenericAtomicOps@U?$QAtomicOpsBySize@$03@@@@SAXAAHH@Z 1000a580 f i moc_lxdialogoperate.obj
 0001:000095a0       ??0?$QFlags@W4TypeFlag@QMetaType@@@@QAE@VQFlag@@@Z 1000a5a0 f i moc_lxdialogoperate.obj
 0001:000095d0       ??0QFlag@@QAE@H@Z          1000a5d0 f i moc_lxdialogoperate.obj
 0001:000095f0       ??BQFlag@@QBEHXZ           1000a5f0 f i moc_lxdialogoperate.obj
 0001:00009610       ??_5?$QFlags@W4TypeFlag@QMetaType@@@@QAEAAV0@W4TypeFlag@QMetaType@@@Z 1000a610 f i moc_lxdialogoperate.obj
 0001:00009640       ??_GQNetworkRequest@@QAEPAXI@Z 1000a640 f i moc_lxdialogoperate.obj
 0001:00009680       ?Construct@?$QMetaTypeFunctionHelper@VQNetworkRequest@@$00@QtMetaTypePrivate@@SAPAXPAXPBX@Z 1000a680 f i moc_lxdialogoperate.obj
 0001:000097e0       ?Create@?$QMetaTypeFunctionHelper@VQNetworkRequest@@$00@QtMetaTypePrivate@@SAPAXPBX@Z 1000a7e0 f i moc_lxdialogoperate.obj
 0001:00009930       ?Delete@?$QMetaTypeFunctionHelper@VQNetworkRequest@@$00@QtMetaTypePrivate@@SAXPAX@Z 1000a930 f i moc_lxdialogoperate.obj
 0001:00009970       ?Destruct@?$QMetaTypeFunctionHelper@VQNetworkRequest@@$00@QtMetaTypePrivate@@SAXPAX@Z 1000a970 f i moc_lxdialogoperate.obj
 0001:00009990       ?loadAcquire@?$QBasicAtomicInteger@H@@QBEHXZ 1000a990 f i moc_lxdialogoperate.obj
 0001:000099b0       ?qt_metatype_id@?$QMetaTypeId2@VQNetworkRequest@@@@SAHXZ 1000a9b0 f i moc_lxdialogoperate.obj
 0001:000099c0       ?qt_metatype_id@?$QMetaTypeId@VQNetworkRequest@@@@SAHXZ 1000a9c0 f i moc_lxdialogoperate.obj
 0001:00009a20       ?qt_metatype_id@?$QMetaTypeIdHelper@VQNetworkRequest@@$00@QtPrivate@@SAHXZ 1000aa20 f i moc_lxdialogoperate.obj
 0001:00009a30       ?registerConverter@?$AssociativeContainerConverterHelper@VQNetworkRequest@@$0A@@QtPrivate@@SA_NH@Z 1000aa30 f i moc_lxdialogoperate.obj
 0001:00009a40       ?registerConverter@?$IsPair@VQNetworkRequest@@@QtPrivate@@SA_NH@Z 1000aa40 f i moc_lxdialogoperate.obj
 0001:00009a50       ?registerConverter@?$MetaTypeSmartPointerHelper@VQNetworkRequest@@X@QtPrivate@@SA_NH@Z 1000aa50 f i moc_lxdialogoperate.obj
 0001:00009a60       ?registerConverter@?$SequentialContainerConverterHelper@VQNetworkRequest@@$0A@@QtPrivate@@SA_NH@Z 1000aa60 f i moc_lxdialogoperate.obj
 0001:00009a70       ?storeRelease@?$QBasicAtomicInteger@H@@QAEXH@Z 1000aa70 f i moc_lxdialogoperate.obj
 0001:00009aa0       ?value@?$MetaObjectForType@VQNetworkRequest@@$0A@@QtPrivate@@SAPBUQMetaObject@@XZ 1000aaa0 f i moc_lxdialogoperate.obj
 0001:00009ab0       ?metaObject@LxDialogs@@UBEPBUQMetaObject@@XZ 1000aab0 f   moc_lxdialogs.obj
 0001:00009af0       ?qt_metacast@LxDialogs@@UAEPAXPBD@Z 1000aaf0 f   moc_lxdialogs.obj
 0001:00009b30       ?qt_metacall@LxDialogs@@UAEHW4Call@QMetaObject@@HPAPAX@Z 1000ab30 f   moc_lxdialogs.obj
 0001:00009bc0       ?qt_static_metacall@LxDialogs@@CAXPAVQObject@@W4Call@QMetaObject@@HPAPAX@Z 1000abc0 f   moc_lxdialogs.obj
 0001:00009fb0       ??$qMetaTypeId@PAVLxDialogBase@@@@YAHXZ 1000afb0 f i moc_lxdialogs.obj
 0001:00009fc0       ??$qRegisterMetaType@PAVLxDialogBase@@@@YAHXZ 1000afc0 f i moc_lxdialogs.obj
 0001:00009fd0       ??$qRegisterNormalizedMetaType@PAVLxDialogBase@@@@YAHABVQByteArray@@PAPAVLxDialogBase@@W4DefinedType@?$MetaTypeDefinedHelper@PAVLxDialogBase@@$00@QtPrivate@@@Z 1000afd0 f i moc_lxdialogs.obj
 0001:0000a0e0       ?Construct@?$QMetaTypeFunctionHelper@PAVLxDialogBase@@$00@QtMetaTypePrivate@@SAPAXPAXPBX@Z 1000b0e0 f i moc_lxdialogs.obj
 0001:0000a150       ?Create@?$QMetaTypeFunctionHelper@PAVLxDialogBase@@$00@QtMetaTypePrivate@@SAPAXPBX@Z 1000b150 f i moc_lxdialogs.obj
 0001:0000a1e0       ?Delete@?$QMetaTypeFunctionHelper@PAVLxDialogBase@@$00@QtMetaTypePrivate@@SAXPAX@Z 1000b1e0 f i moc_lxdialogs.obj
 0001:0000a200       ?Destruct@?$QMetaTypeFunctionHelper@PAVLxDialogBase@@$00@QtMetaTypePrivate@@SAXPAX@Z 1000b200 f i moc_lxdialogs.obj
 0001:0000a210       ?qt_metatype_id@?$QMetaTypeId2@PAVLxDialogBase@@@@SAHXZ 1000b210 f i moc_lxdialogs.obj
 0001:0000a220       ?qt_metatype_id@?$QMetaTypeIdHelper@PAVLxDialogBase@@$00@QtPrivate@@SAHXZ 1000b220 f i moc_lxdialogs.obj
 0001:0000a230       ?qt_metatype_id@?$QMetaTypeIdQObject@PAVLxDialogBase@@$00@@SAHXZ 1000b230 f i moc_lxdialogs.obj
 0001:0000a340       ?registerConverter@?$AssociativeContainerConverterHelper@PAVLxDialogBase@@$0A@@QtPrivate@@SA_NH@Z 1000b340 f i moc_lxdialogs.obj
 0001:0000a350       ?registerConverter@?$IsPair@PAVLxDialogBase@@@QtPrivate@@SA_NH@Z 1000b350 f i moc_lxdialogs.obj
 0001:0000a360       ?registerConverter@?$MetaTypeSmartPointerHelper@PAVLxDialogBase@@X@QtPrivate@@SA_NH@Z 1000b360 f i moc_lxdialogs.obj
 0001:0000a370       ?registerConverter@?$SequentialContainerConverterHelper@PAVLxDialogBase@@$0A@@QtPrivate@@SA_NH@Z 1000b370 f i moc_lxdialogs.obj
 0001:0000a380       ?value@?$MetaObjectForType@PAVLxDialogBase@@$00@QtPrivate@@SAPBUQMetaObject@@XZ 1000b380 f i moc_lxdialogs.obj
 0001:0000a390       ?metaObject@LxDir@@UBEPBUQMetaObject@@XZ 1000b390 f   moc_lxdir.obj
 0001:0000a3d0       ?qt_metacast@LxDir@@UAEPAXPBD@Z 1000b3d0 f   moc_lxdir.obj
 0001:0000a410       ?qt_metacall@LxDir@@UAEHW4Call@QMetaObject@@HPAPAX@Z 1000b410 f   moc_lxdir.obj
 0001:0000a4a0       ?qt_static_metacall@LxDir@@CAXPAVQObject@@W4Call@QMetaObject@@HPAPAX@Z 1000b4a0 f   moc_lxdir.obj
 0001:0000b160       ?metaObject@LxDownloadItem@@UBEPBUQMetaObject@@XZ 1000c160 f   moc_lxdownloadmanager.obj
 0001:0000b1a0       ?qt_metacast@LxDownloadItem@@UAEPAXPBD@Z 1000c1a0 f   moc_lxdownloadmanager.obj
 0001:0000b1e0       ?qt_metacall@LxDownloadItem@@UAEHW4Call@QMetaObject@@HPAPAX@Z 1000c1e0 f   moc_lxdownloadmanager.obj
 0001:0000b270       ?qt_static_metacall@LxDownloadItem@@CAXPAVQObject@@W4Call@QMetaObject@@HPAPAX@Z 1000c270 f   moc_lxdownloadmanager.obj
 0001:0000b360       ?metaObject@LxDownloadManager@@UBEPBUQMetaObject@@XZ 1000c360 f   moc_lxdownloadmanager.obj
 0001:0000b3a0       ?qt_metacast@LxDownloadManager@@UAEPAXPBD@Z 1000c3a0 f   moc_lxdownloadmanager.obj
 0001:0000b3e0       ?qt_metacall@LxDownloadManager@@UAEHW4Call@QMetaObject@@HPAPAX@Z 1000c3e0 f   moc_lxdownloadmanager.obj
 0001:0000b470       ?qt_static_metacall@LxDownloadManager@@CAXPAVQObject@@W4Call@QMetaObject@@HPAPAX@Z 1000c470 f   moc_lxdownloadmanager.obj
 0001:0000b790       ??$qMetaTypeId@W4NetworkError@QNetworkReply@@@@YAHXZ 1000c790 f i moc_lxdownloadmanager.obj
 0001:0000b7a0       ??$qRegisterMetaType@W4NetworkError@QNetworkReply@@@@YAHPBDPAW4NetworkError@QNetworkReply@@W4DefinedType@?$MetaTypeDefinedHelper@W4NetworkError@QNetworkReply@@$00@QtPrivate@@@Z 1000c7a0 f i moc_lxdownloadmanager.obj
 0001:0000b840       ??$qRegisterMetaType@W4NetworkError@QNetworkReply@@@@YAHXZ 1000c840 f i moc_lxdownloadmanager.obj
 0001:0000b850       ??$qRegisterNormalizedMetaType@W4NetworkError@QNetworkReply@@@@YAHABVQByteArray@@PAW4NetworkError@QNetworkReply@@W4DefinedType@?$MetaTypeDefinedHelper@W4NetworkError@QNetworkReply@@$00@QtPrivate@@@Z 1000c850 f i moc_lxdownloadmanager.obj
 0001:0000b960       ?Construct@?$QMetaTypeFunctionHelper@W4NetworkError@QNetworkReply@@$00@QtMetaTypePrivate@@SAPAXPAXPBX@Z 1000c960 f i moc_lxdownloadmanager.obj
 0001:0000b9d0       ?Create@?$QMetaTypeFunctionHelper@W4NetworkError@QNetworkReply@@$00@QtMetaTypePrivate@@SAPAXPBX@Z 1000c9d0 f i moc_lxdownloadmanager.obj
 0001:0000ba60       ?Delete@?$QMetaTypeFunctionHelper@W4NetworkError@QNetworkReply@@$00@QtMetaTypePrivate@@SAXPAX@Z 1000ca60 f i moc_lxdownloadmanager.obj
 0001:0000ba80       ?Destruct@?$QMetaTypeFunctionHelper@W4NetworkError@QNetworkReply@@$00@QtMetaTypePrivate@@SAXPAX@Z 1000ca80 f i moc_lxdownloadmanager.obj
 0001:0000ba90       ?download@LxDownloadManager@@QAEXABVQUrl@@PAVLxDialogBase@@_N@Z 1000ca90 f i moc_lxdownloadmanager.obj
 0001:0000bb30       ?getNetworkAccessManager@LxDownloadManager@@SAPAVQNetworkAccessManager@@XZ 1000cb30 f i moc_lxdownloadmanager.obj
 0001:0000bb40       ?qt_metatype_id@?$QMetaTypeId2@W4NetworkError@QNetworkReply@@@@SAHXZ 1000cb40 f i moc_lxdownloadmanager.obj
 0001:0000bb50       ?qt_metatype_id@?$QMetaTypeId@W4NetworkError@QNetworkReply@@@@SAHXZ 1000cb50 f i moc_lxdownloadmanager.obj
 0001:0000bbb0       ?qt_metatype_id@?$QMetaTypeIdHelper@W4NetworkError@QNetworkReply@@$00@QtPrivate@@SAHXZ 1000cbb0 f i moc_lxdownloadmanager.obj
 0001:0000bbc0       ?registerConverter@?$AssociativeContainerConverterHelper@W4NetworkError@QNetworkReply@@$0A@@QtPrivate@@SA_NH@Z 1000cbc0 f i moc_lxdownloadmanager.obj
 0001:0000bbd0       ?registerConverter@?$IsPair@W4NetworkError@QNetworkReply@@@QtPrivate@@SA_NH@Z 1000cbd0 f i moc_lxdownloadmanager.obj
 0001:0000bbe0       ?registerConverter@?$MetaTypeSmartPointerHelper@W4NetworkError@QNetworkReply@@X@QtPrivate@@SA_NH@Z 1000cbe0 f i moc_lxdownloadmanager.obj
 0001:0000bbf0       ?registerConverter@?$SequentialContainerConverterHelper@W4NetworkError@QNetworkReply@@$0A@@QtPrivate@@SA_NH@Z 1000cbf0 f i moc_lxdownloadmanager.obj
 0001:0000bc00       ?tr@LxDownloadItem@@SA?AVQString@@PBD0H@Z 1000cc00 f i moc_lxdownloadmanager.obj
 0001:0000bc50       ?tr@LxDownloadManager@@SA?AVQString@@PBD0H@Z 1000cc50 f i moc_lxdownloadmanager.obj
 0001:0000bca0       ?trUtf8@LxDownloadItem@@SA?AVQString@@PBD0H@Z 1000cca0 f i moc_lxdownloadmanager.obj
 0001:0000bcf0       ?trUtf8@LxDownloadManager@@SA?AVQString@@PBD0H@Z 1000ccf0 f i moc_lxdownloadmanager.obj
 0001:0000bd40       ?value@?$MetaObjectForType@W4NetworkError@QNetworkReply@@$0A@@QtPrivate@@SAPBUQMetaObject@@XZ 1000cd40 f i moc_lxdownloadmanager.obj
 0001:0000bd50       ?metaObject@LxFile@@UBEPBUQMetaObject@@XZ 1000cd50 f   moc_lxfile.obj
 0001:0000bd90       ?qt_metacast@LxFile@@UAEPAXPBD@Z 1000cd90 f   moc_lxfile.obj
 0001:0000bdd0       ?qt_metacall@LxFile@@UAEHW4Call@QMetaObject@@HPAPAX@Z 1000cdd0 f   moc_lxfile.obj
 0001:0000be60       ?qt_static_metacall@LxFile@@CAXPAVQObject@@W4Call@QMetaObject@@HPAPAX@Z 1000ce60 f   moc_lxfile.obj
 0001:0000c7f0       ?metaObject@LxHttp@@UBEPBUQMetaObject@@XZ 1000d7f0 f   moc_lxHttp.obj
 0001:0000c830       ?qt_metacast@LxHttp@@UAEPAXPBD@Z 1000d830 f   moc_lxHttp.obj
 0001:0000c870       ?qt_metacall@LxHttp@@UAEHW4Call@QMetaObject@@HPAPAX@Z 1000d870 f   moc_lxHttp.obj
 0001:0000c900       ?qt_static_metacall@LxHttp@@CAXPAVQObject@@W4Call@QMetaObject@@HPAPAX@Z 1000d900 f   moc_lxHttp.obj
 0001:0000cc10       ?metaObject@LxLibManager@@UBEPBUQMetaObject@@XZ 1000dc10 f   moc_lxlibmanager.obj
 0001:0000cc50       ?qt_metacast@LxLibManager@@UAEPAXPBD@Z 1000dc50 f   moc_lxlibmanager.obj
 0001:0000cc90       ?qt_metacall@LxLibManager@@UAEHW4Call@QMetaObject@@HPAPAX@Z 1000dc90 f   moc_lxlibmanager.obj
 0001:0000cd20       ?qt_static_metacall@LxLibManager@@CAXPAVQObject@@W4Call@QMetaObject@@HPAPAX@Z 1000dd20 f   moc_lxlibmanager.obj
 0001:0000d020       ?metaObject@LxLibrary@@UBEPBUQMetaObject@@XZ 1000e020 f   moc_lxlibrary.obj
 0001:0000d060       ?qt_metacast@LxLibrary@@UAEPAXPBD@Z 1000e060 f   moc_lxlibrary.obj
 0001:0000d0a0       ?qt_metacall@LxLibrary@@UAEHW4Call@QMetaObject@@HPAPAX@Z 1000e0a0 f   moc_lxlibrary.obj
 0001:0000d130       ?qt_static_metacall@LxLibrary@@CAXPAVQObject@@W4Call@QMetaObject@@HPAPAX@Z 1000e130 f   moc_lxlibrary.obj
 0001:0000d520       ?metaObject@LxMainWindow@@UBEPBUQMetaObject@@XZ 1000e520 f   moc_lxmainwin.obj
 0001:0000d560       ?qt_metacast@LxMainWindow@@UAEPAXPBD@Z 1000e560 f   moc_lxmainwin.obj
 0001:0000d5a0       ?qt_metacall@LxMainWindow@@UAEHW4Call@QMetaObject@@HPAPAX@Z 1000e5a0 f   moc_lxmainwin.obj
 0001:0000d630       ?qt_static_metacall@LxMainWindow@@CAXPAVQObject@@W4Call@QMetaObject@@HPAPAX@Z 1000e630 f   moc_lxmainwin.obj
 0001:0000d6c0       ?metaObject@LxNetWorkCookies@@UBEPBUQMetaObject@@XZ 1000e6c0 f   moc_lxnetworkcookie.obj
 0001:0000d700       ?qt_metacast@LxNetWorkCookies@@UAEPAXPBD@Z 1000e700 f   moc_lxnetworkcookie.obj
 0001:0000d740       ?qt_metacall@LxNetWorkCookies@@UAEHW4Call@QMetaObject@@HPAPAX@Z 1000e740 f   moc_lxnetworkcookie.obj
 0001:0000d780       ?qt_static_metacall@LxNetWorkCookies@@CAXPAVQObject@@W4Call@QMetaObject@@HPAPAX@Z 1000e780 f   moc_lxnetworkcookie.obj
 0001:0000d7c0       ?metaObject@LxOperate@@UBEPBUQMetaObject@@XZ 1000e7c0 f   moc_lxoperate.obj
 0001:0000d800       ?qt_metacast@LxOperate@@UAEPAXPBD@Z 1000e800 f   moc_lxoperate.obj
 0001:0000d840       ?qt_metacall@LxOperate@@UAEHW4Call@QMetaObject@@HPAPAX@Z 1000e840 f   moc_lxoperate.obj
 0001:0000d8d0       ?qt_static_metacall@LxOperate@@CAXPAVQObject@@W4Call@QMetaObject@@HPAPAX@Z 1000e8d0 f   moc_lxoperate.obj
 0001:0000d980       ?metaObject@LxOption@@UBEPBUQMetaObject@@XZ 1000e980 f   moc_lxoption.obj
 0001:0000d9c0       ?qt_metacast@LxOption@@UAEPAXPBD@Z 1000e9c0 f   moc_lxoption.obj
 0001:0000da00       ?qt_metacall@LxOption@@UAEHW4Call@QMetaObject@@HPAPAX@Z 1000ea00 f   moc_lxoption.obj
 0001:0000da90       ?qt_static_metacall@LxOption@@CAXPAVQObject@@W4Call@QMetaObject@@HPAPAX@Z 1000ea90 f   moc_lxoption.obj
 0001:0000e170       ?metaObject@LxResources@@UBEPBUQMetaObject@@XZ 1000f170 f   moc_lxresources.obj
 0001:0000e1b0       ?qt_metacast@LxResources@@UAEPAXPBD@Z 1000f1b0 f   moc_lxresources.obj
 0001:0000e1f0       ?qt_metacall@LxResources@@UAEHW4Call@QMetaObject@@HPAPAX@Z 1000f1f0 f   moc_lxresources.obj
 0001:0000e280       ?qt_static_metacall@LxResources@@CAXPAVQObject@@W4Call@QMetaObject@@HPAPAX@Z 1000f280 f   moc_lxresources.obj
 0001:0000e590       ?metaObject@LxSystemTray@@UBEPBUQMetaObject@@XZ 1000f590 f   moc_lxsystemtray.obj
 0001:0000e5d0       ?qt_metacast@LxSystemTray@@UAEPAXPBD@Z 1000f5d0 f   moc_lxsystemtray.obj
 0001:0000e610       ?qt_metacall@LxSystemTray@@UAEHW4Call@QMetaObject@@HPAPAX@Z 1000f610 f   moc_lxsystemtray.obj
 0001:0000e6a0       ?qt_static_metacall@LxSystemTray@@CAXPAVQObject@@W4Call@QMetaObject@@HPAPAX@Z 1000f6a0 f   moc_lxsystemtray.obj
 0001:0000e730       ?metaObject@LxWebPage@@UBEPBUQMetaObject@@XZ 1000f730 f   moc_lxwebpage.obj
 0001:0000e770       ?qt_metacast@LxWebPage@@UAEPAXPBD@Z 1000f770 f   moc_lxwebpage.obj
 0001:0000e7b0       ?qt_metacall@LxWebPage@@UAEHW4Call@QMetaObject@@HPAPAX@Z 1000f7b0 f   moc_lxwebpage.obj
 0001:0000e840       ?qt_static_metacall@LxWebPage@@CAXPAVQObject@@W4Call@QMetaObject@@HPAPAX@Z 1000f840 f   moc_lxwebpage.obj
 0001:0000ea10       ??$qMetaTypeId@PAVQNetworkReply@@@@YAHXZ 1000fa10 f i moc_lxwebpage.obj
 0001:0000ea20       ??$qMetaTypeId@PAVQWebFrame@@@@YAHXZ 1000fa20 f i moc_lxwebpage.obj
 0001:0000ea30       ??$qRegisterMetaType@PAVQNetworkReply@@@@YAHXZ 1000fa30 f i moc_lxwebpage.obj
 0001:0000ea40       ??$qRegisterMetaType@PAVQWebFrame@@@@YAHXZ 1000fa40 f i moc_lxwebpage.obj
 0001:0000ea50       ??$qRegisterNormalizedMetaType@PAVQNetworkReply@@@@YAHABVQByteArray@@PAPAVQNetworkReply@@W4DefinedType@?$MetaTypeDefinedHelper@PAVQNetworkReply@@$00@QtPrivate@@@Z 1000fa50 f i moc_lxwebpage.obj
 0001:0000eb60       ??$qRegisterNormalizedMetaType@PAVQWebFrame@@@@YAHABVQByteArray@@PAPAVQWebFrame@@W4DefinedType@?$MetaTypeDefinedHelper@PAVQWebFrame@@$00@QtPrivate@@@Z 1000fb60 f i moc_lxwebpage.obj
 0001:0000ec70       ?Construct@?$QMetaTypeFunctionHelper@PAVQNetworkReply@@$00@QtMetaTypePrivate@@SAPAXPAXPBX@Z 1000fc70 f i moc_lxwebpage.obj
 0001:0000ece0       ?Construct@?$QMetaTypeFunctionHelper@PAVQWebFrame@@$00@QtMetaTypePrivate@@SAPAXPAXPBX@Z 1000fce0 f i moc_lxwebpage.obj
 0001:0000ed50       ?Create@?$QMetaTypeFunctionHelper@PAVQNetworkReply@@$00@QtMetaTypePrivate@@SAPAXPBX@Z 1000fd50 f i moc_lxwebpage.obj
 0001:0000ede0       ?Create@?$QMetaTypeFunctionHelper@PAVQWebFrame@@$00@QtMetaTypePrivate@@SAPAXPBX@Z 1000fde0 f i moc_lxwebpage.obj
 0001:0000ee70       ?Delete@?$QMetaTypeFunctionHelper@PAVQNetworkReply@@$00@QtMetaTypePrivate@@SAXPAX@Z 1000fe70 f i moc_lxwebpage.obj
 0001:0000ee90       ?Delete@?$QMetaTypeFunctionHelper@PAVQWebFrame@@$00@QtMetaTypePrivate@@SAXPAX@Z 1000fe90 f i moc_lxwebpage.obj
 0001:0000eeb0       ?Destruct@?$QMetaTypeFunctionHelper@PAVQNetworkReply@@$00@QtMetaTypePrivate@@SAXPAX@Z 1000feb0 f i moc_lxwebpage.obj
 0001:0000eec0       ?Destruct@?$QMetaTypeFunctionHelper@PAVQWebFrame@@$00@QtMetaTypePrivate@@SAXPAX@Z 1000fec0 f i moc_lxwebpage.obj
 0001:0000eed0       ?qt_metatype_id@?$QMetaTypeId2@PAVQNetworkReply@@@@SAHXZ 1000fed0 f i moc_lxwebpage.obj
 0001:0000eee0       ?qt_metatype_id@?$QMetaTypeId2@PAVQWebFrame@@@@SAHXZ 1000fee0 f i moc_lxwebpage.obj
 0001:0000eef0       ?qt_metatype_id@?$QMetaTypeIdHelper@PAVQNetworkReply@@$00@QtPrivate@@SAHXZ 1000fef0 f i moc_lxwebpage.obj
 0001:0000ef00       ?qt_metatype_id@?$QMetaTypeIdHelper@PAVQWebFrame@@$00@QtPrivate@@SAHXZ 1000ff00 f i moc_lxwebpage.obj
 0001:0000ef10       ?qt_metatype_id@?$QMetaTypeIdQObject@PAVQNetworkReply@@$00@@SAHXZ 1000ff10 f i moc_lxwebpage.obj
 0001:0000f020       ?qt_metatype_id@?$QMetaTypeIdQObject@PAVQWebFrame@@$00@@SAHXZ 10010020 f i moc_lxwebpage.obj
 0001:0000f130       ?registerConverter@?$AssociativeContainerConverterHelper@PAVQNetworkReply@@$0A@@QtPrivate@@SA_NH@Z 10010130 f i moc_lxwebpage.obj
 0001:0000f140       ?registerConverter@?$AssociativeContainerConverterHelper@PAVQWebFrame@@$0A@@QtPrivate@@SA_NH@Z 10010140 f i moc_lxwebpage.obj
 0001:0000f150       ?registerConverter@?$IsPair@PAVQNetworkReply@@@QtPrivate@@SA_NH@Z 10010150 f i moc_lxwebpage.obj
 0001:0000f160       ?registerConverter@?$IsPair@PAVQWebFrame@@@QtPrivate@@SA_NH@Z 10010160 f i moc_lxwebpage.obj
 0001:0000f170       ?registerConverter@?$MetaTypeSmartPointerHelper@PAVQNetworkReply@@X@QtPrivate@@SA_NH@Z 10010170 f i moc_lxwebpage.obj
 0001:0000f180       ?registerConverter@?$MetaTypeSmartPointerHelper@PAVQWebFrame@@X@QtPrivate@@SA_NH@Z 10010180 f i moc_lxwebpage.obj
 0001:0000f190       ?registerConverter@?$SequentialContainerConverterHelper@PAVQNetworkReply@@$0A@@QtPrivate@@SA_NH@Z 10010190 f i moc_lxwebpage.obj
 0001:0000f1a0       ?registerConverter@?$SequentialContainerConverterHelper@PAVQWebFrame@@$0A@@QtPrivate@@SA_NH@Z 100101a0 f i moc_lxwebpage.obj
 0001:0000f1b0       ?value@?$MetaObjectForType@PAVQNetworkReply@@$00@QtPrivate@@SAPBUQMetaObject@@XZ 100101b0 f i moc_lxwebpage.obj
 0001:0000f1c0       ?value@?$MetaObjectForType@PAVQWebFrame@@$00@QtPrivate@@SAPBUQMetaObject@@XZ 100101c0 f i moc_lxwebpage.obj
 0001:0000f1d0       ?metaObject@LxWebPluginFactory@@UBEPBUQMetaObject@@XZ 100101d0 f   moc_lxwebpluginfactory.obj
 0001:0000f210       ?qt_metacast@LxWebPluginFactory@@UAEPAXPBD@Z 10010210 f   moc_lxwebpluginfactory.obj
 0001:0000f250       ?qt_metacall@LxWebPluginFactory@@UAEHW4Call@QMetaObject@@HPAPAX@Z 10010250 f   moc_lxwebpluginfactory.obj
 0001:0000f290       ?qt_static_metacall@LxWebPluginFactory@@CAXPAVQObject@@W4Call@QMetaObject@@HPAPAX@Z 10010290 f   moc_lxwebpluginfactory.obj
 0001:0000f2d0       ??0LxDownloadItem@@QAE@PAVQNetworkReply@@PAVLxDialogBase@@PAVQObject@@@Z 100102d0 f   lxdownloadmanager.obj
 0001:0000f370       ??1LxDownloadItem@@UAE@XZ  10010370 f   lxdownloadmanager.obj
 0001:0000f3e0       ?startDownloading@LxDownloadItem@@QAEXVQUrl@@@Z 100103e0 f   lxdownloadmanager.obj
 0001:0000f7c0       ?downloadReadyRead@LxDownloadItem@@AAEXXZ 100107c0 f   lxdownloadmanager.obj
 0001:0000f7d0       ?downloadError@LxDownloadItem@@AAEXW4NetworkError@QNetworkReply@@@Z 100107d0 f   lxdownloadmanager.obj
 0001:0000f900       ?downloadFinished@LxDownloadItem@@AAEXXZ 10010900 f   lxdownloadmanager.obj
 0001:00010720       ?metaDataChanged@LxDownloadItem@@AAEXXZ 10011720 f   lxdownloadmanager.obj
 0001:000107f0       ??0LxDownloadManager@@QAE@PAVQObject@@@Z 100117f0 f   lxdownloadmanager.obj
 0001:00010a50       ??1LxDownloadManager@@UAE@XZ 10011a50 f   lxdownloadmanager.obj
 0001:00010ad0       ?download@LxDownloadManager@@QAEXABVQNetworkRequest@@PAVLxDialogBase@@_N@Z 10011ad0 f   lxdownloadmanager.obj
 0001:000112c0       ??$atomic@H@?$QAtomicOpsBySize@$03@@CAPAJPAH@Z 100122c0 f i lxdownloadmanager.obj
 0001:000112d0       ??$deref@H@?$QAtomicOpsBySize@$03@@SA_NAAH@Z 100122d0 f i lxdownloadmanager.obj
 0001:00011310       ??$load@H@?$QGenericAtomicOps@U?$QAtomicOpsBySize@$03@@@@SAHABH@Z 10012310 f i lxdownloadmanager.obj
 0001:00011320       ??0?$QFlags@W4ComponentFormattingOption@QUrl@@@@QAE@W4ComponentFormattingOption@QUrl@@@Z 10012320 f i lxdownloadmanager.obj
 0001:00011340       ??0?$QFlags@W4OpenModeFlag@QIODevice@@@@QAE@W4OpenModeFlag@QIODevice@@@Z 10012340 f i lxdownloadmanager.obj
 0001:00011360       ??0?$QFlags@W4Option@QFileDialog@@@@QAE@PQPrivate@0@H@Z 10012360 f i lxdownloadmanager.obj
 0001:00011380       ??0?$QList@PAVLxDownloadItem@@@@QAE@XZ 10012380 f i lxdownloadmanager.obj
 0001:000113a0       ??0?$QUrlTwoFlags@W4UrlFormattingOption@QUrl@@W4ComponentFormattingOption@2@@@QAE@W4ComponentFormattingOption@QUrl@@@Z 100123a0 f i lxdownloadmanager.obj
 0001:000113c0       ??0QLatin1Char@@QAE@D@Z    100123c0 f i lxdownloadmanager.obj
 0001:000113e0       ??0QLatin1String@@QAE@PBD@Z 100123e0 f i lxdownloadmanager.obj
 0001:00011440       ??1?$QList@PAVLxDownloadItem@@@@QAE@XZ 10012440 f i lxdownloadmanager.obj
 0001:00011480       ??1?$QList@VQByteArray@@@@QAE@XZ 10012480 f i lxdownloadmanager.obj
 0001:000114c0       ??1?$basic_string@DU?$char_traits@D@std@@V?$allocator@D@2@@std@@QAE@XZ 100124c0 f i lxdownloadmanager.obj
 0001:000114e0       ??H@YA?BVQString@@ABV0@0@Z 100124e0 f i lxdownloadmanager.obj
 0001:00011590       ??H@YA?BVQString@@ABV0@PBD@Z 10012590 f i lxdownloadmanager.obj
 0001:00011670       ??H@YA?BVQString@@PBDABV0@@Z 10012670 f i lxdownloadmanager.obj
 0001:00011720       ??_ELxDownloadItem@@UAEPAXI@Z 10012720 f i lxdownloadmanager.obj
 0001:000117b0       ??_ELxDownloadManager@@UAEPAXI@Z 100127b0 f i lxdownloadmanager.obj
 0001:00011840       ??_GLxDownloadItem@@UAEPAXI@Z 10012840 f i lxdownloadmanager.obj
 0001:00011880       ??_GLxDownloadManager@@UAEPAXI@Z 10012880 f i lxdownloadmanager.obj
 0001:000118c0       ??_GQByteArray@@QAEPAXI@Z  100128c0 f i lxdownloadmanager.obj
 0001:00011900       ??_EQNetworkAccessManager@@UAEPAXI@Z 10012900 f i lxdownloadmanager.obj
 0001:00011900       ??_GQNetworkAccessManager@@UAEPAXI@Z 10012900 f i lxdownloadmanager.obj
 0001:00011940       ??_GQNetworkDiskCache@@UAEPAXI@Z 10012940 f i lxdownloadmanager.obj
 0001:00011940       ??_EQNetworkDiskCache@@UAEPAXI@Z 10012940 f i lxdownloadmanager.obj
 0001:00011980       ?LogEx@@YAXPBD00@Z         10012980 f i lxdownloadmanager.obj
 0001:00011ae0       ?append@?$QList@PAVLxDownloadItem@@@@QAEXABQAVLxDownloadItem@@@Z 10012ae0 f i lxdownloadmanager.obj
 0001:00011cb0       ?c_str@?$basic_string@DU?$char_traits@D@std@@V?$allocator@D@2@@std@@QBEPBDXZ 10012cb0 f i lxdownloadmanager.obj
 0001:00011cd0       ?data@?$basic_string@DU?$char_traits@D@std@@V?$allocator@D@2@@std@@QBEPBDXZ 10012cd0 f i lxdownloadmanager.obj
 0001:00011cf0       ?dealloc@?$QList@PAVLxDownloadItem@@@@AAEXPAUData@QListData@@@Z 10012cf0 f i lxdownloadmanager.obj
 0001:00011d40       ?dealloc@?$QList@VQByteArray@@@@AAEXPAUData@QListData@@@Z 10012d40 f i lxdownloadmanager.obj
 0001:00011d90       ?deref@?$QBasicAtomicInteger@H@@QAE_NXZ 10012d90 f i lxdownloadmanager.obj
 0001:00011db0       ?deref@RefCount@QtPrivate@@QAE_NXZ 10012db0 f i lxdownloadmanager.obj
 0001:00011e00       ?detach_helper_grow@?$QList@PAVLxDownloadItem@@@@AAEPAUNode@1@HH@Z 10012e00 f i lxdownloadmanager.obj
 0001:00012000       ?isShared@RefCount@QtPrivate@@QBE_NXZ 10013000 f i lxdownloadmanager.obj
 0001:00012050       ?load@?$QBasicAtomicInteger@H@@QBEHXZ 10013050 f i lxdownloadmanager.obj
 0001:00012070       ?node_construct@?$QList@PAVLxDownloadItem@@@@AAEXPAUNode@1@ABQAVLxDownloadItem@@@Z 10013070 f i lxdownloadmanager.obj
 0001:00012130       ?node_copy@?$QList@PAVLxDownloadItem@@@@AAEXPAUNode@1@00@Z 10013130 f i lxdownloadmanager.obj
 0001:00012380       ?node_destruct@?$QList@PAVLxDownloadItem@@@@AAEXPAUNode@1@0@Z 10013380 f i lxdownloadmanager.obj
 0001:000123f0       ?node_destruct@?$QList@PAVLxDownloadItem@@@@AAEXPAUNode@1@@Z 100133f0 f i lxdownloadmanager.obj
 0001:00012420       ?node_destruct@?$QList@VQByteArray@@@@AAEXPAUNode@1@0@Z 10013420 f i lxdownloadmanager.obj
 0001:000124c0       ??0LxSystemTray@@QAE@VQIcon@@VQString@@PAVLxDialogBase@@@Z 100134c0 f   lxsystemtray.obj
 0001:00012630       ??1LxSystemTray@@UAE@XZ    10013630 f   lxsystemtray.obj
 0001:000126f0       ?__initSystemTray@LxSystemTray@@AAE_NXZ 100136f0 f   lxsystemtray.obj
 0001:00013370       ?iconActivated@LxSystemTray@@QAEXW4ActivationReason@QSystemTrayIcon@@@Z 10014370 f   lxsystemtray.obj
 0001:00013790       ??$?0VQObject@@@?$QWeakPointer@VQObject@@@@AAE@PAVQObject@@_N@Z 10014790 f i lxsystemtray.obj
 0001:000137f0       ??$assign@VQObject@@@?$QWeakPointer@VQObject@@@@AAEAAV0@PAVQObject@@@Z 100147f0 f i lxsystemtray.obj
 0001:00013890       ??$qMapLessThanKey@VQString@@@@YA_NABVQString@@0@Z 10014890 f i lxsystemtray.obj
 0001:000138b0       ??$ref@H@?$QAtomicOpsBySize@$03@@SA_NAAH@Z 100148b0 f i lxsystemtray.obj
 0001:000138f0       ??0?$QFlags@W4WindowType@Qt@@@@QAE@PQPrivate@0@H@Z 100148f0 f i lxsystemtray.obj
 0001:00013910       ??0?$QMap@VQString@@PAVQAction@@@@QAE@XZ 10014910 f i lxsystemtray.obj
 0001:00013930       ??0?$QPointer@VLxDialogBase@@@@QAE@XZ 10014930 f i lxsystemtray.obj
 0001:00013950       ??0?$QPointer@VQMenu@@@@QAE@XZ 10014950 f i lxsystemtray.obj
 0001:00013970       ??0?$QPointer@VQSystemTrayIcon@@@@QAE@XZ 10014970 f i lxsystemtray.obj
 0001:00013990       ??0?$QWeakPointer@VQObject@@@@QAE@XZ 10014990 f i lxsystemtray.obj
 0001:000139c0       ??0iterator@?$QMap@VQString@@PAVQAction@@@@QAE@PAU?$QMapNode@VQString@@PAVQAction@@@@@Z 100149c0 f i lxsystemtray.obj
 0001:000139e0       ??1?$QMap@VQString@@PAVQAction@@@@QAE@XZ 100149e0 f i lxsystemtray.obj
 0001:00013a10       ??1?$QPointer@VLxDialogBase@@@@QAE@XZ 10014a10 f i lxsystemtray.obj
 0001:00013a30       ??1?$QPointer@VQMenu@@@@QAE@XZ 10014a30 f i lxsystemtray.obj
 0001:00013a50       ??1?$QPointer@VQSystemTrayIcon@@@@QAE@XZ 10014a50 f i lxsystemtray.obj
 0001:00013a70       ??1?$QWeakPointer@VQObject@@@@QAE@XZ 10014a70 f i lxsystemtray.obj
 0001:00013ae0       ??1ExternalRefCountData@QtSharedPointer@@QAE@XZ 10014ae0 f i lxsystemtray.obj
 0001:00013b00       ??3ExternalRefCountData@QtSharedPointer@@SAXPAX@Z 10014b00 f i lxsystemtray.obj
 0001:00013b20       ??4?$QPointer@VLxDialogBase@@@@QAEAAV0@PAVLxDialogBase@@@Z 10014b20 f i lxsystemtray.obj
 0001:00013b50       ??4?$QPointer@VQMenu@@@@QAEAAV0@PAVQMenu@@@Z 10014b50 f i lxsystemtray.obj
 0001:00013b80       ??4?$QPointer@VQSystemTrayIcon@@@@QAEAAV0@PAVQSystemTrayIcon@@@Z 10014b80 f i lxsystemtray.obj
 0001:00013bb0       ??4?$QWeakPointer@VQObject@@@@QAEAAV0@ABV0@@Z 10014bb0 f i lxsystemtray.obj
 0001:00013be0       ??B?$QPointer@VLxDialogBase@@@@QBEPAVLxDialogBase@@XZ 10014be0 f i lxsystemtray.obj
 0001:00013c00       ??B?$QPointer@VQMenu@@@@QBEPAVQMenu@@XZ 10014c00 f i lxsystemtray.obj
 0001:00013c20       ??B?$QPointer@VQSystemTrayIcon@@@@QBEPAVQSystemTrayIcon@@XZ 10014c20 f i lxsystemtray.obj
 0001:00013c40       ??C?$QPointer@VLxDialogBase@@@@QBEPAVLxDialogBase@@XZ 10014c40 f i lxsystemtray.obj
 0001:00013c60       ??C?$QPointer@VQMenu@@@@QBEPAVQMenu@@XZ 10014c60 f i lxsystemtray.obj
 0001:00013c80       ??C?$QPointer@VQSystemTrayIcon@@@@QBEPAVQSystemTrayIcon@@XZ 10014c80 f i lxsystemtray.obj
 0001:00013c97       ??_ELxSystemTray@@W7AEPAXI@Z 10014c97 f i lxsystemtray.obj
 0001:00013ca1       ??_EQMenu@@W7AEPAXI@Z      10014ca1 f i lxsystemtray.obj
 0001:00013cb0       ??_GExternalRefCountData@QtSharedPointer@@QAEPAXI@Z 10014cb0 f i lxsystemtray.obj
 0001:00013cf0       ??_ELxSystemTray@@UAEPAXI@Z 10014cf0 f i lxsystemtray.obj
 0001:00013cf0       ??_GLxSystemTray@@UAEPAXI@Z 10014cf0 f i lxsystemtray.obj
 0001:00013d30       ??_GQAction@@UAEPAXI@Z     10014d30 f i lxsystemtray.obj
 0001:00013d30       ??_EQAction@@UAEPAXI@Z     10014d30 f i lxsystemtray.obj
 0001:00013d70       ??_GQMenu@@UAEPAXI@Z       10014d70 f i lxsystemtray.obj
 0001:00013d70       ??_EQMenu@@UAEPAXI@Z       10014d70 f i lxsystemtray.obj
 0001:00013db0       ??_GQString@@QAEPAXI@Z     10014db0 f i lxsystemtray.obj
 0001:00013df0       ??_EQSystemTrayIcon@@UAEPAXI@Z 10014df0 f i lxsystemtray.obj
 0001:00013df0       ??_GQSystemTrayIcon@@UAEPAXI@Z 10014df0 f i lxsystemtray.obj
 0001:00013e30       ?copy@?$QMapNode@VQString@@PAVQAction@@@@QBEPAU1@PAU?$QMapData@VQString@@PAVQAction@@@@@Z 10014e30 f i lxsystemtray.obj
 0001:00013f20       ?create@?$QMapData@VQString@@PAVQAction@@@@SAPAU1@XZ 10014f20 f i lxsystemtray.obj
 0001:00013f30       ?createNode@?$QMapData@VQString@@PAVQAction@@@@QAEPAU?$QMapNode@VQString@@PAVQAction@@@@ABVQString@@ABQAVQAction@@PAU2@_N@Z 10014f30 f i lxsystemtray.obj
 0001:000140c0       ?data@?$QPointer@VLxDialogBase@@@@QBEPAVLxDialogBase@@XZ 100150c0 f i lxsystemtray.obj
 0001:000140e0       ?data@?$QPointer@VQMenu@@@@QBEPAVQMenu@@XZ 100150e0 f i lxsystemtray.obj
 0001:00014100       ?data@?$QPointer@VQSystemTrayIcon@@@@QBEPAVQSystemTrayIcon@@XZ 10015100 f i lxsystemtray.obj
 0001:00014120       ?data@?$QWeakPointer@VQObject@@@@QBEPAVQObject@@XZ 10015120 f i lxsystemtray.obj
 0001:00014170       ?destroy@?$QMapData@VQString@@PAVQAction@@@@QAEXXZ 10015170 f i lxsystemtray.obj
 0001:000141d0       ?destroySubTree@?$QMapNode@VQString@@PAVQAction@@@@QAEXXZ 100151d0 f i lxsystemtray.obj
 0001:00014240       ?detach@?$QMap@VQString@@PAVQAction@@@@QAEXXZ 10015240 f i lxsystemtray.obj
 0001:00014270       ?detach_helper@?$QMap@VQString@@PAVQAction@@@@AAEXXZ 10015270 f i lxsystemtray.obj
 0001:00014310       ?end@?$QMapData@VQString@@PAVQAction@@@@QAEPAU?$QMapNode@VQString@@PAVQAction@@@@XZ 10015310 f i lxsystemtray.obj
 0001:00014330       ?insert@?$QMap@VQString@@PAVQAction@@@@QAE?AViterator@1@ABVQString@@ABQAVQAction@@@Z 10015330 f i lxsystemtray.obj
 0001:00014460       ?internalSet@?$QWeakPointer@VQObject@@@@AAEXPAUExternalRefCountData@QtSharedPointer@@PAVQObject@@@Z 10015460 f i lxsystemtray.obj
 0001:00014500       ?leftNode@?$QMapNode@VQString@@PAVQAction@@@@QBEPAU1@XZ 10015500 f i lxsystemtray.obj
 0001:00014520       ?ref@?$QBasicAtomicInteger@H@@QAE_NXZ 10015520 f i lxsystemtray.obj
 0001:00014540       ?rightNode@?$QMapNode@VQString@@PAVQAction@@@@QBEPAU1@XZ 10015540 f i lxsystemtray.obj
 0001:00014560       ?root@?$QMapData@VQString@@PAVQAction@@@@QBEPAU?$QMapNode@VQString@@PAVQAction@@@@XZ 10015560 f i lxsystemtray.obj
 0001:00014580       ??0LxBaseWin@@QAE@PAVQWidget@@@Z 10015580 f   lxbasewin.obj
 0001:00014960       ??1LxBaseWin@@UAE@XZ       10015960 f   lxbasewin.obj
 0001:00014a00       ?triggerPageAction@LxBaseWin@@QAEXW4WebAction@QWebPage@@_N@Z 10015a00 f   lxbasewin.obj
 0001:00014aa0       ?_initWidget@LxBaseWin@@AAE_NXZ 10015aa0 f   lxbasewin.obj
 0001:00014cd0       ?linkClickedAction@LxBaseWin@@QAEXABVQUrl@@@Z 10015cd0 f   lxbasewin.obj
 0001:00014e00       ?showEvent@LxBaseWin@@MAEXPAVQShowEvent@@@Z 10015e00 f   lxbasewin.obj
 0001:00014e30       ?event@LxBaseWin@@MAE_NPAVQEvent@@@Z 10015e30 f   lxbasewin.obj
 0001:00015080       ??$?0VLxDialogBase@@@?$QWeakPointer@VQObject@@@@AAE@PAVLxDialogBase@@_N@Z 10016080 f i lxbasewin.obj
 0001:000150e0       ??$?0VLxWebPluginFactory@@@?$QWeakPointer@VQObject@@@@AAE@PAVLxWebPluginFactory@@_N@Z 100160e0 f i lxbasewin.obj
 0001:00015140       ??0?$QFlags@W4RenderHint@QPainter@@@@QAE@VQFlag@@@Z 10016140 f i lxbasewin.obj
 0001:00015170       ??0?$QFlags@W4RenderHint@QPainter@@@@QAE@W4RenderHint@QPainter@@@Z 10016170 f i lxbasewin.obj
 0001:00015190       ??0?$QFlags@W4WindowType@Qt@@@@QAE@VQFlag@@@Z 10016190 f i lxbasewin.obj
 0001:000151c0       ??0?$QFlags@W4WindowType@Qt@@@@QAE@W4WindowType@Qt@@@Z 100161c0 f i lxbasewin.obj
 0001:000151e0       ??0?$QPointer@VLxDialogBase@@@@QAE@PAVLxDialogBase@@@Z 100161e0 f i lxbasewin.obj
 0001:00015210       ??0?$QPointer@VLxWebPluginFactory@@@@QAE@PAVLxWebPluginFactory@@@Z 10016210 f i lxbasewin.obj
 0001:00015240       ??0?$QPointer@VLxWebPluginFactory@@@@QAE@XZ 10016240 f i lxbasewin.obj
 0001:00015260       ??0?$QPointer@VQWebPage@@@@QAE@XZ 10016260 f i lxbasewin.obj
 0001:00015280       ??0?$QVector@PAVLxOperate@@@@QAE@XZ 10016280 f i lxbasewin.obj
 0001:000152a0       ??1?$QPointer@VLxWebPluginFactory@@@@QAE@XZ 100162a0 f i lxbasewin.obj
 0001:000152c0       ??1?$QPointer@VQWebPage@@@@QAE@XZ 100162c0 f i lxbasewin.obj
 0001:000152e0       ??1?$QVector@PAVLxOperate@@@@QAE@XZ 100162e0 f i lxbasewin.obj
 0001:00015320       ??B?$QPointer@VLxWebPluginFactory@@@@QBEPAVLxWebPluginFactory@@XZ 10016320 f i lxbasewin.obj
 0001:00015340       ??U?$QFlags@W4RenderHint@QPainter@@@@QBE?AV0@W4RenderHint@QPainter@@@Z 10016340 f i lxbasewin.obj
 0001:00015380       ??U?$QFlags@W4WindowType@Qt@@@@QBE?AV0@W4WindowType@Qt@@@Z 10016380 f i lxbasewin.obj
 0001:000153c0       ??U@YA?AV?$QFlags@W4RenderHint@QPainter@@@@W4RenderHint@QPainter@@0@Z 100163c0 f i lxbasewin.obj
 0001:000153f0       ??U@YA?AV?$QFlags@W4WindowType@Qt@@@@W4WindowType@Qt@@0@Z 100163f0 f i lxbasewin.obj
 0001:00015420       ??_5?$QFlags@W4WindowType@Qt@@@@QAEAAV0@V0@@Z 10016420 f i lxbasewin.obj
 0001:00015450       ??_5?$QFlags@W4WindowType@Qt@@@@QAEAAV0@W4WindowType@Qt@@@Z 10016450 f i lxbasewin.obj
 0001:00015480       ??_ELxBaseWin@@UAEPAXI@Z   10016480 f i lxbasewin.obj
 0001:00015504       ??_ELxBaseWin@@W7AEPAXI@Z  10016504 f i lxbasewin.obj
 0001:00015510       ??_GLxBaseWin@@UAEPAXI@Z   10016510 f i lxbasewin.obj
 0001:00015550       ?begin@?$QTypedArrayData@PAVLxOperate@@@@QAEPAPAVLxOperate@@PAPAV2@@Z 10016550 f i lxbasewin.obj
 0001:00015570       ?data@?$QPointer@VLxWebPluginFactory@@@@QBEPAVLxWebPluginFactory@@XZ 10016570 f i lxbasewin.obj
 0001:00015590       ?data@?$QTypedArrayData@PAVLxOperate@@@@QAEPAPAVLxOperate@@XZ 10016590 f i lxbasewin.obj
 0001:000155b0       ?deallocate@?$QTypedArrayData@PAVLxOperate@@@@SAXPAUQArrayData@@@Z 100165b0 f i lxbasewin.obj
 0001:000155d0       ?destruct@?$QVector@PAVLxOperate@@@@AAEXPAPAVLxOperate@@0@Z 100165d0 f i lxbasewin.obj
 0001:00015600       ?end@?$QTypedArrayData@PAVLxOperate@@@@QAEPAPAVLxOperate@@PAPAV2@@Z 10016600 f i lxbasewin.obj
 0001:00015630       ?freeData@?$QVector@PAVLxOperate@@@@AAEXPAU?$QTypedArrayData@PAVLxOperate@@@@@Z 10016630 f i lxbasewin.obj
 0001:00015680       ?sharedNull@?$QTypedArrayData@PAVLxOperate@@@@SAPAU1@XZ 10016680 f i lxbasewin.obj
 0001:00015690       ?getCookieFilePath@LxOption@@QAE?AVQString@@XZ 10016690 f   lxcoreprivate.obj
 0001:000157a0       ??1LxCoreApplicationPrivate@@UAE@XZ 100167a0 f   lxcoreprivate.obj
 0001:00015840       ?runLomoxApp@LxCoreApplicationPrivate@@QAEXHQAPAD@Z 10016840 f   lxcoreprivate.obj
 0001:00015e30       ?quit@LxCoreApplicationPrivate@@QAEXXZ 10016e30 f   lxcoreprivate.obj
 0001:00015e50       ?getMainWin@LxCoreApplicationPrivate@@QAEPAVLxMainWindow@@XZ 10016e50 f   lxcoreprivate.obj
 0001:00015ee0       ?getDialogs@LxCoreApplicationPrivate@@QAEPAVLxDialogs@@XZ 10016ee0 f   lxcoreprivate.obj
 0001:00015f90       ?getDownloadManager@LxCoreApplicationPrivate@@QAEPAVLxDownloadManager@@XZ 10016f90 f   lxcoreprivate.obj
 0001:00016040       ?showMainDialog@LxCoreApplicationPrivate@@QAEXVQUrl@@@Z 10017040 f   lxcoreprivate.obj
 0001:00016530       ?getOption@LxCoreApplicationPrivate@@QAEPAVLxOption@@XZ 10017530 f   lxcoreprivate.obj
 0001:000165c0       ?setMainDialogTitle@LxCoreApplicationPrivate@@QAEXAAVQString@@@Z 100175c0 f   lxcoreprivate.obj
 0001:000169c0       ??0?$QList@VQString@@@@QAE@XZ 100179c0 f i lxcoreprivate.obj
 0001:000169e0       ??0QStringList@@QAE@XZ     100179e0 f i lxcoreprivate.obj
 0001:00016a00       ??1?$QList@VQString@@@@QAE@XZ 10017a00 f i lxcoreprivate.obj
 0001:00016a40       ??1QStringList@@QAE@XZ     10017a40 f i lxcoreprivate.obj
 0001:00016a60       ??H@YA?BVQString@@ABV0@VQChar@@@Z 10017a60 f i lxcoreprivate.obj
 0001:00016b10       ?append@?$QList@VQString@@@@QAEXABVQString@@@Z 10017b10 f i lxcoreprivate.obj
 0001:00016ce0       ?dealloc@?$QList@VQString@@@@AAEXPAUData@QListData@@@Z 10017ce0 f i lxcoreprivate.obj
 0001:00016d30       ?detach_helper_grow@?$QList@VQString@@@@AAEPAUNode@1@HH@Z 10017d30 f i lxcoreprivate.obj
 0001:00016f30       ?node_construct@?$QList@VQString@@@@AAEXPAUNode@1@ABVQString@@@Z 10017f30 f i lxcoreprivate.obj
 0001:00017060       ?node_copy@?$QList@VQString@@@@AAEXPAUNode@1@00@Z 10018060 f i lxcoreprivate.obj
 0001:00017310       ?node_destruct@?$QList@VQString@@@@AAEXPAUNode@1@0@Z 10018310 f i lxcoreprivate.obj
 0001:000173b0       ?node_destruct@?$QList@VQString@@@@AAEXPAUNode@1@@Z 100183b0 f i lxcoreprivate.obj
 0001:00017420       ??0LxMainWindow@@QAE@PAVQWidget@@@Z 10018420 f   lxmainwin.obj
 0001:000177d0       ??1LxMainWindow@@UAE@XZ    100187d0 f   lxmainwin.obj
 0001:000178a0       ?triggerPageAction@LxMainWindow@@QAEXW4WebAction@QWebPage@@_N@Z 100188a0 f   lxmainwin.obj
 0001:00017940       ?showMax@LxMainWindow@@QAEXXZ 10018940 f   lxmainwin.obj
 0001:000179c0       ?linkClickedAction@LxMainWindow@@QAEXABVQUrl@@@Z 100189c0 f   lxmainwin.obj
 0001:00017af0       ?showEvent@LxMainWindow@@MAEXPAVQShowEvent@@@Z 10018af0 f   lxmainwin.obj
 0001:00017b20       ?event@LxMainWindow@@MAE_NPAVQEvent@@@Z 10018b20 f   lxmainwin.obj
 0001:00017b40       ?_initWidget@LxMainWindow@@AAE_NXZ 10018b40 f   lxmainwin.obj
 0001:00017fb0       ??_ELxMainWindow@@UAEPAXI@Z 10018fb0 f i lxmainwin.obj
 0001:00018034       ??_ELxMainWindow@@W7AEPAXI@Z 10019034 f i lxmainwin.obj
 0001:00018040       ??_GLxMainWindow@@UAEPAXI@Z 10019040 f i lxmainwin.obj
 0001:00018080       ??0LxNetWorkCookies@@QAE@VQString@@PAVQObject@@@Z 10019080 f   lxnetworkcookie.obj
 0001:00018250       ??1LxNetWorkCookies@@UAE@XZ 10019250 f   lxnetworkcookie.obj
 0001:000182c0       ?cookiesForUrl@LxNetWorkCookies@@UBE?AV?$QList@VQNetworkCookie@@@@ABVQUrl@@@Z 100192c0 f   lxnetworkcookie.obj
 0001:00018300       ?setCookiesFromUrl@LxNetWorkCookies@@UAE_NABV?$QList@VQNetworkCookie@@@@ABVQUrl@@@Z 10019300 f   lxnetworkcookie.obj
 0001:00018390       ?SaveCookie@LxNetWorkCookies@@QAE_NXZ 10019390 f   lxnetworkcookie.obj
 0001:00018c00       ??$_Allocate@VQString@@@std@@YAPAVQString@@IPAV1@@Z 10019c00 f i lxnetworkcookie.obj
 0001:00018c60       ??$_Destroy_range@U?$_Wrap_alloc@V?$allocator@VQString@@@std@@@std@@@std@@YAXPAVQString@@0AAU?$_Wrap_alloc@V?$allocator@VQString@@@std@@@0@@Z 10019c60 f i lxnetworkcookie.obj
 0001:00018cb0       ??$_Destroy_range@U?$_Wrap_alloc@V?$allocator@VQString@@@std@@@std@@@std@@YAXPAVQString@@0AAU?$_Wrap_alloc@V?$allocator@VQString@@@std@@@0@U_Nonscalar_ptr_iterator_tag@0@@Z 10019cb0 f i lxnetworkcookie.obj
 0001:00018ce0       ??$_Move@AAPAUData@QListData@@@std@@YA$$QAPAUData@QListData@@AAPAU12@@Z 10019ce0 f i lxnetworkcookie.obj
 0001:00018cf0       ??$_Ptr_cat@VQString@@V1@@std@@YA?AU_Nonscalar_ptr_iterator_tag@0@PAVQString@@0@Z 10019cf0 f i lxnetworkcookie.obj
 0001:00018d00       ??$_Rechecked@PAVQString@@PAV1@@std@@YAAAPAVQString@@AAPAV1@PAV1@@Z 10019d00 f i lxnetworkcookie.obj
 0001:00018d20       ??$_Umove@PAVQString@@@?$vector@VQString@@V?$allocator@VQString@@@std@@@std@@IAEPAVQString@@PAV2@00@Z 10019d20 f i lxnetworkcookie.obj
 0001:00018d60       ??$_Unchecked@PAVQString@@@std@@YAPAVQString@@PAV1@@Z 10019d60 f i lxnetworkcookie.obj
 0001:00018d70       ??$_Uninit_move@PAVQString@@PAV1@U?$_Wrap_alloc@V?$allocator@VQString@@@std@@@std@@@std@@YAPAVQString@@PAV1@00AAU?$_Wrap_alloc@V?$allocator@VQString@@@std@@@0@@Z 10019d70 f i lxnetworkcookie.obj
 0001:00018dd0       ??$_Uninit_move@PAVQString@@PAV1@V?$allocator@VQString@@@std@@V1@@std@@YAPAVQString@@PAV1@00AAU?$_Wrap_alloc@V?$allocator@VQString@@@std@@@0@0U_Nonscalar_ptr_iterator_tag@0@@Z 10019dd0 f i lxnetworkcookie.obj
 0001:00018ec0       ??$_Uninitialized_move@PAVQString@@PAV1@U?$_Wrap_alloc@V?$allocator@VQString@@@std@@@std@@@std@@YAPAVQString@@PAV1@00AAU?$_Wrap_alloc@V?$allocator@VQString@@@std@@@0@@Z 10019ec0 f i lxnetworkcookie.obj
 0001:00018f20       ??$_Val_type@PAVQString@@@std@@YAPAVQString@@PAV1@@Z 10019f20 f i lxnetworkcookie.obj
 0001:00018f30       ??$addressof@$$CBVQString@@@std@@YAPBVQString@@ABV1@@Z 10019f30 f i lxnetworkcookie.obj
 0001:00018f40       ??$addressof@VQString@@@std@@YAPAVQString@@AAV1@@Z 10019f40 f i lxnetworkcookie.obj
 0001:00018f50       ??$construct@VQString@@AAV1@@?$_Wrap_alloc@V?$allocator@VQString@@@std@@@std@@QAEXPAVQString@@AAV2@@Z 10019f50 f i lxnetworkcookie.obj
 0001:00018f90       ??$construct@VQString@@AAV1@@?$allocator@VQString@@@std@@QAEXPAVQString@@AAV2@@Z 10019f90 f i lxnetworkcookie.obj
 0001:00019040       ??$construct@VQString@@AAV1@@?$allocator_traits@V?$allocator@VQString@@@std@@@std@@SAXAAV?$allocator@VQString@@@1@PAVQString@@AAV3@@Z 1001a040 f i lxnetworkcookie.obj
 0001:00019070       ??$construct@VQString@@ABV1@@?$_Wrap_alloc@V?$allocator@VQString@@@std@@@std@@QAEXPAVQString@@ABV2@@Z 1001a070 f i lxnetworkcookie.obj
 0001:000190b0       ??$construct@VQString@@ABV1@@?$allocator_traits@V?$allocator@VQString@@@std@@@std@@SAXAAV?$allocator@VQString@@@1@PAVQString@@ABV3@@Z 1001a0b0 f i lxnetworkcookie.obj
 0001:000190e0       ??$construct@VQString@@V1@@?$_Wrap_alloc@V?$allocator@VQString@@@std@@@std@@QAEXPAVQString@@$$QAV2@@Z 1001a0e0 f i lxnetworkcookie.obj
 0001:00019120       ??$construct@VQString@@V1@@?$allocator@VQString@@@std@@QAEXPAVQString@@$$QAV2@@Z 1001a120 f i lxnetworkcookie.obj
 0001:000191d0       ??$construct@VQString@@V1@@?$allocator_traits@V?$allocator@VQString@@@std@@@std@@SAXAAV?$allocator@VQString@@@1@PAVQString@@$$QAV3@@Z 1001a1d0 f i lxnetworkcookie.obj
 0001:00019200       ??$destroy@VQString@@@?$_Wrap_alloc@V?$allocator@VQString@@@std@@@std@@QAEXPAVQString@@@Z 1001a200 f i lxnetworkcookie.obj
 0001:00019230       ??$destroy@VQString@@@?$allocator@VQString@@@std@@QAEXPAVQString@@@Z 1001a230 f i lxnetworkcookie.obj
 0001:00019250       ??$destroy@VQString@@@?$allocator_traits@V?$allocator@VQString@@@std@@@std@@SAXAAV?$allocator@VQString@@@1@PAVQString@@@Z 1001a250 f i lxnetworkcookie.obj
 0001:00019270       ??$forward@AAVQString@@@std@@YAAAVQString@@AAV1@@Z 1001a270 f i lxnetworkcookie.obj
 0001:00019280       ??$forward@ABVQString@@@std@@YAABVQString@@ABV1@@Z 1001a280 f i lxnetworkcookie.obj
 0001:00019290       ??$forward@VQString@@@std@@YA$$QAVQString@@AAV1@@Z 1001a290 f i lxnetworkcookie.obj
 0001:000192a0       ??$qSwap@PAUData@QListData@@@@YAXAAPAUData@QListData@@0@Z 1001a2a0 f i lxnetworkcookie.obj
 0001:000192c0       ??$swap@PAUData@QListData@@@std@@YAXAAPAUData@QListData@@0@Z 1001a2c0 f i lxnetworkcookie.obj
 0001:00019310       ??0?$QFlags@W4OpenModeFlag@QIODevice@@@@QAE@VQFlag@@@Z 1001a310 f i lxnetworkcookie.obj
 0001:00019340       ??0?$QList@VQNetworkCookie@@@@QAE@ABV0@@Z 1001a340 f i lxnetworkcookie.obj
 0001:00019460       ??0?$QList@VQNetworkCookie@@@@QAE@XZ 1001a460 f i lxnetworkcookie.obj
 0001:00019480       ??0?$_Vector_alloc@$0A@U?$_Vec_base_types@VQString@@V?$allocator@VQString@@@std@@@std@@@std@@QAE@ABV?$allocator@VQString@@@1@@Z 1001a480 f i lxnetworkcookie.obj
 0001:000194a0       ??0?$_Vector_val@U?$_Simple_types@VQString@@@std@@@std@@QAE@XZ 1001a4a0 f i lxnetworkcookie.obj
 0001:000194e0       ??0?$_Wrap_alloc@V?$allocator@VQString@@@std@@@std@@QAE@XZ 1001a4e0 f i lxnetworkcookie.obj
 0001:00019500       ??0?$allocator@VQString@@@std@@QAE@XZ 1001a500 f i lxnetworkcookie.obj
 0001:00019520       ??0?$vector@VQString@@V?$allocator@VQString@@@std@@@std@@QAE@XZ 1001a520 f i lxnetworkcookie.obj
 0001:00019550       ??1?$QList@VQNetworkCookie@@@@QAE@XZ 1001a550 f i lxnetworkcookie.obj
 0001:00019590       ??1?$vector@VQString@@V?$allocator@VQString@@@std@@@std@@QAE@XZ 1001a590 f i lxnetworkcookie.obj
 0001:000195b0       ??4?$QList@VQNetworkCookie@@@@QAEAAV0@$$QAV0@@Z 1001a5b0 f i lxnetworkcookie.obj
 0001:000195e0       ??4?$QList@VQNetworkCookie@@@@QAEAAV0@ABV0@@Z 1001a5e0 f i lxnetworkcookie.obj
 0001:00019680       ??A?$vector@VQString@@V?$allocator@VQString@@@std@@@std@@QAEAAVQString@@I@Z 1001a680 f i lxnetworkcookie.obj
 0001:000196a0       ??U?$QFlags@W4OpenModeFlag@QIODevice@@@@QBE?AV0@W4OpenModeFlag@QIODevice@@@Z 1001a6a0 f i lxnetworkcookie.obj
 0001:000196e0       ??U@YA?AV?$QFlags@W4OpenModeFlag@QIODevice@@@@W4OpenModeFlag@QIODevice@@0@Z 1001a6e0 f i lxnetworkcookie.obj
 0001:00019710       ??Y?$QList@VQNetworkCookie@@@@QAEAAV0@ABV0@@Z 1001a710 f i lxnetworkcookie.obj
 0001:00019890       ??_GLxNetWorkCookies@@UAEPAXI@Z 1001a890 f i lxnetworkcookie.obj
 0001:00019890       ??_ELxNetWorkCookies@@UAEPAXI@Z 1001a890 f i lxnetworkcookie.obj
 0001:000198d0       ??_GQNetworkCookie@@QAEPAXI@Z 1001a8d0 f i lxnetworkcookie.obj
 0001:00019910       ?_Destroy@?$vector@VQString@@V?$allocator@VQString@@@std@@@std@@IAEXPAVQString@@0@Z 1001a910 f i lxnetworkcookie.obj
 0001:00019950       ?_Getal@?$_Vector_alloc@$0A@U?$_Vec_base_types@VQString@@V?$allocator@VQString@@@std@@@std@@@std@@QBE?AU?$_Wrap_alloc@V?$allocator@VQString@@@std@@@2@XZ 1001a950 f i lxnetworkcookie.obj
 0001:00019970       ?_Grow_to@?$vector@VQString@@V?$allocator@VQString@@@std@@@std@@IBEII@Z 1001a970 f i lxnetworkcookie.obj
 0001:000199e0       ?_Inside@?$vector@VQString@@V?$allocator@VQString@@@std@@@std@@IBE_NPBVQString@@@Z 1001a9e0 f i lxnetworkcookie.obj
 0001:00019a30       ?_Orphan_range@?$vector@VQString@@V?$allocator@VQString@@@std@@@std@@IBEXPAVQString@@0@Z 1001aa30 f i lxnetworkcookie.obj
 0001:00019a40       ?_Reallocate@?$vector@VQString@@V?$allocator@VQString@@@std@@@std@@IAEXI@Z 1001aa40 f i lxnetworkcookie.obj
 0001:00019bd0       ?_Reserve@?$vector@VQString@@V?$allocator@VQString@@@std@@@std@@IAEXI@Z 1001abd0 f i lxnetworkcookie.obj
 0001:00019c40       ?_Tidy@?$vector@VQString@@V?$allocator@VQString@@@std@@@std@@IAEXXZ 1001ac40 f i lxnetworkcookie.obj
 0001:00019ce0       ?_Unused_capacity@?$vector@VQString@@V?$allocator@VQString@@@std@@@std@@QBEIXZ 1001ace0 f i lxnetworkcookie.obj
 0001:00019d00       ?_Xlen@?$vector@VQString@@V?$allocator@VQString@@@std@@@std@@IBEXXZ 1001ad00 f i lxnetworkcookie.obj
 0001:00019d20       ?_Xran@?$vector@VQString@@V?$allocator@VQString@@@std@@@std@@IBEXXZ 1001ad20 f i lxnetworkcookie.obj
 0001:00019d40       ?allocate@?$_Wrap_alloc@V?$allocator@VQString@@@std@@@std@@QAEPAVQString@@I@Z 1001ad40 f i lxnetworkcookie.obj
 0001:00019d60       ?allocate@?$allocator@VQString@@@std@@QAEPAVQString@@I@Z 1001ad60 f i lxnetworkcookie.obj
 0001:00019d90       ?append@?$QList@VQNetworkCookie@@@@QAEXABV1@@Z 1001ad90 f i lxnetworkcookie.obj
 0001:00019db0       ?at@?$QList@VQNetworkCookie@@@@QBEABVQNetworkCookie@@H@Z 1001adb0 f i lxnetworkcookie.obj
 0001:00019de0       ?at@?$vector@VQString@@V?$allocator@VQString@@@std@@@std@@QAEAAVQString@@I@Z 1001ade0 f i lxnetworkcookie.obj
 0001:00019e20       ?capacity@?$vector@VQString@@V?$allocator@VQString@@@std@@@std@@QBEIXZ 1001ae20 f i lxnetworkcookie.obj
 0001:00019e40       ?construct@?$allocator@VQString@@@std@@QAEXPAVQString@@ABV3@@Z 1001ae40 f i lxnetworkcookie.obj
 0001:00019ee0       ?dealloc@?$QList@VQNetworkCookie@@@@AAEXPAUData@QListData@@@Z 1001aee0 f i lxnetworkcookie.obj
 0001:00019f30       ?deallocate@?$_Wrap_alloc@V?$allocator@VQString@@@std@@@std@@QAEXPAVQString@@I@Z 1001af30 f i lxnetworkcookie.obj
 0001:00019f60       ?deallocate@?$allocator@VQString@@@std@@QAEXPAVQString@@I@Z 1001af60 f i lxnetworkcookie.obj
 0001:00019f80       ?detach_helper_grow@?$QList@VQNetworkCookie@@@@AAEPAUNode@1@HH@Z 1001af80 f i lxnetworkcookie.obj
 0001:0001a180       ?isEmpty@?$QList@VQNetworkCookie@@@@QBE_NXZ 1001b180 f i lxnetworkcookie.obj
 0001:0001a1a0       ?max_size@?$_Wrap_alloc@V?$allocator@VQString@@@std@@@std@@QBEIXZ 1001b1a0 f i lxnetworkcookie.obj
 0001:0001a1c0       ?max_size@?$allocator@VQString@@@std@@QBEIXZ 1001b1c0 f i lxnetworkcookie.obj
 0001:0001a1e0       ?max_size@?$allocator_traits@V?$allocator@VQString@@@std@@@std@@SAIABV?$allocator@VQString@@@2@@Z 1001b1e0 f i lxnetworkcookie.obj
 0001:0001a1f0       ?max_size@?$vector@VQString@@V?$allocator@VQString@@@std@@@std@@QBEIXZ 1001b1f0 f i lxnetworkcookie.obj
 0001:0001a220       ?node_copy@?$QList@VQNetworkCookie@@@@AAEXPAUNode@1@00@Z 1001b220 f i lxnetworkcookie.obj
 0001:0001a4d0       ?node_destruct@?$QList@VQNetworkCookie@@@@AAEXPAUNode@1@0@Z 1001b4d0 f i lxnetworkcookie.obj
 0001:0001a570       ?push_back@?$vector@VQString@@V?$allocator@VQString@@@std@@@std@@QAEX$$QAVQString@@@Z 1001b570 f i lxnetworkcookie.obj
 0001:0001a6d0       ?push_back@?$vector@VQString@@V?$allocator@VQString@@@std@@@std@@QAEXABVQString@@@Z 1001b6d0 f i lxnetworkcookie.obj
 0001:0001a820       ?ref@RefCount@QtPrivate@@QAE_NXZ 1001b820 f i lxnetworkcookie.obj
 0001:0001a860       ?size@?$QList@VQNetworkCookie@@@@QBEHXZ 1001b860 f i lxnetworkcookie.obj
 0001:0001a880       ?size@?$vector@VQString@@V?$allocator@VQString@@@std@@@std@@QBEIXZ 1001b880 f i lxnetworkcookie.obj
 0001:0001a8a0       ?swap@?$QList@VQNetworkCookie@@@@QAEXAAV1@@Z 1001b8a0 f i lxnetworkcookie.obj
 0001:0001a8d0       ?t@Node@?$QList@VQNetworkCookie@@@@QAEAAVQNetworkCookie@@XZ 1001b8d0 f i lxnetworkcookie.obj
 0001:0001a900       ??0LxWebPage@@QAE@PAVQObject@@@Z 1001b900 f   lxwebpage.obj
 0001:0001a9c0       ??1LxWebPage@@UAE@XZ       1001b9c0 f   lxwebpage.obj
 0001:0001a9e0       ?acceptNavigationRequest@LxWebPage@@MAE_NPAVQWebFrame@@ABVQNetworkRequest@@W4NavigationType@QWebPage@@@Z 1001b9e0 f   lxwebpage.obj
 0001:0001ab90       ?permissionRequested@LxWebPage@@AAEXPAVQWebFrame@@W4Feature@QWebPage@@@Z 1001bb90 f   lxwebpage.obj
 0001:0001abb0       ?handleUnsupportedContent@LxWebPage@@AAEXPAVQNetworkReply@@@Z 1001bbb0 f   lxwebpage.obj
 0001:0001b4b0       ??_ELxWebPage@@UAEPAXI@Z   1001c4b0 f i lxwebpage.obj
 0001:0001b4b0       ??_GLxWebPage@@UAEPAXI@Z   1001c4b0 f i lxwebpage.obj
 0001:0001b4f0       ??0LxWebPluginFactory@@QAE@PAVQObject@@@Z 1001c4f0 f   lxwebpluginfactory.obj
 0001:0001b5b0       ??1LxWebPluginFactory@@UAE@XZ 1001c5b0 f   lxwebpluginfactory.obj
 0001:0001b620       ?plugins@LxWebPluginFactory@@UBE?AV?$QList@UPlugin@QWebPluginFactory@@@@XZ 1001c620 f   lxwebpluginfactory.obj
 0001:0001b7c0       ?getPluginsFromPath@LxWebPluginFactory@@QBEXVQString@@AAV?$QList@UPlugin@QWebPluginFactory@@@@@Z 1001c7c0 f   lxwebpluginfactory.obj
 0001:0001bdb0       ?create@LxWebPluginFactory@@UBEPAVQObject@@ABVQString@@ABVQUrl@@ABVQStringList@@2@Z 1001cdb0 f   lxwebpluginfactory.obj
 0001:0001c270       ??$?6VQString@@@@YA?AVQDebug@@V0@ABV?$QList@VQString@@@@@Z 1001d270 f i lxwebpluginfactory.obj
 0001:0001c3a0       ??$qobject_cast@PAVLxWebKitPluginInterface@@@@YAPAVLxWebKitPluginInterface@@PAVQObject@@@Z 1001d3a0 f i lxwebpluginfactory.obj
 0001:0001c3e0       ??0?$QFlags@W4Filter@QDir@@@@QAE@W4Filter@QDir@@@Z 1001d3e0 f i lxwebpluginfactory.obj
 0001:0001c400       ??0?$QFlags@W4SortFlag@QDir@@@@QAE@W4SortFlag@QDir@@@Z 1001d400 f i lxwebpluginfactory.obj
 0001:0001c420       ??0?$QForeachContainer@V?$QList@UMimeType@QWebPluginFactory@@@@@@QAE@ABV?$QList@UMimeType@QWebPluginFactory@@@@@Z 1001d420 f i lxwebpluginfactory.obj
 0001:0001c4c0       ??0?$QForeachContainer@VQStringList@@@@QAE@ABVQStringList@@@Z 1001d4c0 f i lxwebpluginfactory.obj
 0001:0001c560       ??0?$QList@PAVLxWebKitPluginInterface@@@@QAE@XZ 1001d560 f i lxwebpluginfactory.obj
 0001:0001c580       ??0?$QList@UMimeType@QWebPluginFactory@@@@QAE@ABV0@@Z 1001d580 f i lxwebpluginfactory.obj
 0001:0001c6a0       ??0?$QList@UPlugin@QWebPluginFactory@@@@QAE@ABV0@@Z 1001d6a0 f i lxwebpluginfactory.obj
 0001:0001c7c0       ??0?$QList@UPlugin@QWebPluginFactory@@@@QAE@XZ 1001d7c0 f i lxwebpluginfactory.obj
 0001:0001c7e0       ??0?$QList@V?$QList@UPlugin@QWebPluginFactory@@@@@@QAE@XZ 1001d7e0 f i lxwebpluginfactory.obj
 0001:0001c800       ??0?$QList@VQString@@@@QAE@ABV0@@Z 1001d800 f i lxwebpluginfactory.obj
 0001:0001c920       ??0Plugin@QWebPluginFactory@@QAE@ABU01@@Z 1001d920 f i lxwebpluginfactory.obj
 0001:0001c9c0       ??0QStringList@@QAE@ABV0@@Z 1001d9c0 f i lxwebpluginfactory.obj
 0001:0001c9f0       ??0const_iterator@?$QList@UMimeType@QWebPluginFactory@@@@QAE@PAUNode@1@@Z 1001d9f0 f i lxwebpluginfactory.obj
 0001:0001ca10       ??0const_iterator@?$QList@VQString@@@@QAE@PAUNode@1@@Z 1001da10 f i lxwebpluginfactory.obj
 0001:0001ca30       ??1?$QForeachContainer@V?$QList@UMimeType@QWebPluginFactory@@@@@@QAE@XZ 1001da30 f i lxwebpluginfactory.obj
 0001:0001ca50       ??1?$QForeachContainer@VQStringList@@@@QAE@XZ 1001da50 f i lxwebpluginfactory.obj
 0001:0001ca70       ??1?$QList@PAVLxWebKitPluginInterface@@@@QAE@XZ 1001da70 f i lxwebpluginfactory.obj
 0001:0001cab0       ??1?$QList@UMimeType@QWebPluginFactory@@@@QAE@XZ 1001dab0 f i lxwebpluginfactory.obj
 0001:0001caf0       ??1?$QList@UPlugin@QWebPluginFactory@@@@QAE@XZ 1001daf0 f i lxwebpluginfactory.obj
 0001:0001cb30       ??1?$QList@V?$QList@UPlugin@QWebPluginFactory@@@@@@QAE@XZ 1001db30 f i lxwebpluginfactory.obj
 0001:0001cb70       ??1Plugin@QWebPluginFactory@@QAE@XZ 1001db70 f i lxwebpluginfactory.obj
 0001:0001cbf0       ??4?$QList@UPlugin@QWebPluginFactory@@@@QAEAAV0@$$QAV0@@Z 1001dbf0 f i lxwebpluginfactory.obj
 0001:0001cc20       ??4?$QList@UPlugin@QWebPluginFactory@@@@QAEAAV0@ABV0@@Z 1001dc20 f i lxwebpluginfactory.obj
 0001:0001ccc0       ??6QStringList@@QAEAAV0@ABVQString@@@Z 1001dcc0 f i lxwebpluginfactory.obj
 0001:0001ccf0       ??9const_iterator@?$QList@UMimeType@QWebPluginFactory@@@@QBE_NABV01@@Z 1001dcf0 f i lxwebpluginfactory.obj
 0001:0001cd30       ??9const_iterator@?$QList@VQString@@@@QBE_NABV01@@Z 1001dd30 f i lxwebpluginfactory.obj
 0001:0001cd70       ??A?$QList@PAVLxWebKitPluginInterface@@@@QAEAAPAVLxWebKitPluginInterface@@H@Z 1001dd70 f i lxwebpluginfactory.obj
 0001:0001cdb0       ??A?$QList@UPlugin@QWebPluginFactory@@@@QAEAAUPlugin@QWebPluginFactory@@H@Z 1001ddb0 f i lxwebpluginfactory.obj
 0001:0001cdf0       ??A?$QList@V?$QList@UPlugin@QWebPluginFactory@@@@@@QAEAAV?$QList@UPlugin@QWebPluginFactory@@@@H@Z 1001ddf0 f i lxwebpluginfactory.obj
 0001:0001ce30       ??Dconst_iterator@?$QList@UMimeType@QWebPluginFactory@@@@QBEABUMimeType@QWebPluginFactory@@XZ 1001de30 f i lxwebpluginfactory.obj
 0001:0001ce50       ??Dconst_iterator@?$QList@VQString@@@@QBEABVQString@@XZ 1001de50 f i lxwebpluginfactory.obj
 0001:0001ce70       ??Econst_iterator@?$QList@UMimeType@QWebPluginFactory@@@@QAEAAV01@XZ 1001de70 f i lxwebpluginfactory.obj
 0001:0001cea0       ??Econst_iterator@?$QList@VQString@@@@QAEAAV01@XZ 1001dea0 f i lxwebpluginfactory.obj
 0001:0001ced0       ??Y?$QList@UPlugin@QWebPluginFactory@@@@QAEAAV0@ABV0@@Z 1001ded0 f i lxwebpluginfactory.obj
 0001:0001d050       ??_G?$QList@UPlugin@QWebPluginFactory@@@@QAEPAXI@Z 1001e050 f i lxwebpluginfactory.obj
 0001:0001d090       ??_GLxWebPluginFactory@@UAEPAXI@Z 1001e090 f i lxwebpluginfactory.obj
 0001:0001d090       ??_ELxWebPluginFactory@@UAEPAXI@Z 1001e090 f i lxwebpluginfactory.obj
 0001:0001d0d0       ??_GMimeType@QWebPluginFactory@@QAEPAXI@Z 1001e0d0 f i lxwebpluginfactory.obj
 0001:0001d110       ??_GPlugin@QWebPluginFactory@@QAEPAXI@Z 1001e110 f i lxwebpluginfactory.obj
 0001:0001d150       ?append@?$QList@PAVLxWebKitPluginInterface@@@@QAEXABQAVLxWebKitPluginInterface@@@Z 1001e150 f i lxwebpluginfactory.obj
 0001:0001d320       ?append@?$QList@UPlugin@QWebPluginFactory@@@@QAEXABV1@@Z 1001e320 f i lxwebpluginfactory.obj
 0001:0001d340       ?append@?$QList@V?$QList@UPlugin@QWebPluginFactory@@@@@@QAEXABV?$QList@UPlugin@QWebPluginFactory@@@@@Z 1001e340 f i lxwebpluginfactory.obj
 0001:0001d510       ?at@?$QList@UPlugin@QWebPluginFactory@@@@QBEABUPlugin@QWebPluginFactory@@H@Z 1001e510 f i lxwebpluginfactory.obj
 0001:0001d540       ?at@?$QList@VQString@@@@QBEABVQString@@H@Z 1001e540 f i lxwebpluginfactory.obj
 0001:0001d570       ?begin@?$QList@UMimeType@QWebPluginFactory@@@@QBE?AVconst_iterator@1@XZ 1001e570 f i lxwebpluginfactory.obj
 0001:0001d5a0       ?begin@?$QList@VQString@@@@QBE?AVconst_iterator@1@XZ 1001e5a0 f i lxwebpluginfactory.obj
 0001:0001d5d0       ?clear@?$QList@UPlugin@QWebPluginFactory@@@@QAEXXZ 1001e5d0 f i lxwebpluginfactory.obj
 0001:0001d660       ?count@?$QList@VQString@@@@QBEHXZ 1001e660 f i lxwebpluginfactory.obj
 0001:0001d680       ?dealloc@?$QList@PAVLxWebKitPluginInterface@@@@AAEXPAUData@QListData@@@Z 1001e680 f i lxwebpluginfactory.obj
 0001:0001d6d0       ?dealloc@?$QList@UMimeType@QWebPluginFactory@@@@AAEXPAUData@QListData@@@Z 1001e6d0 f i lxwebpluginfactory.obj
 0001:0001d720       ?dealloc@?$QList@UPlugin@QWebPluginFactory@@@@AAEXPAUData@QListData@@@Z 1001e720 f i lxwebpluginfactory.obj
 0001:0001d770       ?dealloc@?$QList@V?$QList@UPlugin@QWebPluginFactory@@@@@@AAEXPAUData@QListData@@@Z 1001e770 f i lxwebpluginfactory.obj
 0001:0001d7c0       ?detach@?$QList@PAVLxWebKitPluginInterface@@@@QAEXXZ 1001e7c0 f i lxwebpluginfactory.obj
 0001:0001d7f0       ?detach@?$QList@UPlugin@QWebPluginFactory@@@@QAEXXZ 1001e7f0 f i lxwebpluginfactory.obj
 0001:0001d820       ?detach@?$QList@V?$QList@UPlugin@QWebPluginFactory@@@@@@QAEXXZ 1001e820 f i lxwebpluginfactory.obj
 0001:0001d850       ?detach_helper@?$QList@PAVLxWebKitPluginInterface@@@@AAEXH@Z 1001e850 f i lxwebpluginfactory.obj
 0001:0001d970       ?detach_helper@?$QList@PAVLxWebKitPluginInterface@@@@AAEXXZ 1001e970 f i lxwebpluginfactory.obj
 0001:0001d9a0       ?detach_helper@?$QList@UPlugin@QWebPluginFactory@@@@AAEXH@Z 1001e9a0 f i lxwebpluginfactory.obj
 0001:0001dac0       ?detach_helper@?$QList@UPlugin@QWebPluginFactory@@@@AAEXXZ 1001eac0 f i lxwebpluginfactory.obj
 0001:0001daf0       ?detach_helper@?$QList@V?$QList@UPlugin@QWebPluginFactory@@@@@@AAEXH@Z 1001eaf0 f i lxwebpluginfactory.obj
 0001:0001dc10       ?detach_helper@?$QList@V?$QList@UPlugin@QWebPluginFactory@@@@@@AAEXXZ 1001ec10 f i lxwebpluginfactory.obj
 0001:0001dc40       ?detach_helper_grow@?$QList@PAVLxWebKitPluginInterface@@@@AAEPAUNode@1@HH@Z 1001ec40 f i lxwebpluginfactory.obj
 0001:0001de40       ?detach_helper_grow@?$QList@UPlugin@QWebPluginFactory@@@@AAEPAUNode@1@HH@Z 1001ee40 f i lxwebpluginfactory.obj
 0001:0001e040       ?detach_helper_grow@?$QList@V?$QList@UPlugin@QWebPluginFactory@@@@@@AAEPAUNode@1@HH@Z 1001f040 f i lxwebpluginfactory.obj
 0001:0001e240       ?end@?$QList@UMimeType@QWebPluginFactory@@@@QBE?AVconst_iterator@1@XZ 1001f240 f i lxwebpluginfactory.obj
 0001:0001e270       ?end@?$QList@VQString@@@@QBE?AVconst_iterator@1@XZ 1001f270 f i lxwebpluginfactory.obj
 0001:0001e2a0       ?extension@LxWebPluginFactory@@UAE_NW4Extension@QWebPluginFactory@@PBVExtensionOption@3@PAVExtensionReturn@3@@Z 1001f2a0 f i lxwebpluginfactory.obj
 0001:0001e2c0       ?isEmpty@?$QList@UPlugin@QWebPluginFactory@@@@QBE_NXZ 1001f2c0 f i lxwebpluginfactory.obj
 0001:0001e2e0       ?node_construct@?$QList@PAVLxWebKitPluginInterface@@@@AAEXPAUNode@1@ABQAVLxWebKitPluginInterface@@@Z 1001f2e0 f i lxwebpluginfactory.obj
 0001:0001e3a0       ?node_construct@?$QList@V?$QList@UPlugin@QWebPluginFactory@@@@@@AAEXPAUNode@1@ABV?$QList@UPlugin@QWebPluginFactory@@@@@Z 1001f3a0 f i lxwebpluginfactory.obj
 0001:0001e4c0       ?node_copy@?$QList@PAVLxWebKitPluginInterface@@@@AAEXPAUNode@1@00@Z 1001f4c0 f i lxwebpluginfactory.obj
 0001:0001e710       ?node_copy@?$QList@UMimeType@QWebPluginFactory@@@@AAEXPAUNode@1@00@Z 1001f710 f i lxwebpluginfactory.obj
 0001:0001e9d0       ?node_copy@?$QList@UPlugin@QWebPluginFactory@@@@AAEXPAUNode@1@00@Z 1001f9d0 f i lxwebpluginfactory.obj
 0001:0001ec90       ?node_copy@?$QList@V?$QList@UPlugin@QWebPluginFactory@@@@@@AAEXPAUNode@1@00@Z 1001fc90 f i lxwebpluginfactory.obj
 0001:0001ef40       ?node_destruct@?$QList@PAVLxWebKitPluginInterface@@@@AAEXPAUNode@1@0@Z 1001ff40 f i lxwebpluginfactory.obj
 0001:0001efb0       ?node_destruct@?$QList@PAVLxWebKitPluginInterface@@@@AAEXPAUNode@1@@Z 1001ffb0 f i lxwebpluginfactory.obj
 0001:0001efe0       ?node_destruct@?$QList@UMimeType@QWebPluginFactory@@@@AAEXPAUNode@1@0@Z 1001ffe0 f i lxwebpluginfactory.obj
 0001:0001f080       ?node_destruct@?$QList@UPlugin@QWebPluginFactory@@@@AAEXPAUNode@1@0@Z 10020080 f i lxwebpluginfactory.obj
 0001:0001f120       ?node_destruct@?$QList@V?$QList@UPlugin@QWebPluginFactory@@@@@@AAEXPAUNode@1@0@Z 10020120 f i lxwebpluginfactory.obj
 0001:0001f1c0       ?node_destruct@?$QList@V?$QList@UPlugin@QWebPluginFactory@@@@@@AAEXPAUNode@1@@Z 100201c0 f i lxwebpluginfactory.obj
 0001:0001f230       ?size@?$QList@UPlugin@QWebPluginFactory@@@@QBEHXZ 10020230 f i lxwebpluginfactory.obj
 0001:0001f250       ?size@?$QList@V?$QList@UPlugin@QWebPluginFactory@@@@@@QBEHXZ 10020250 f i lxwebpluginfactory.obj
 0001:0001f270       ?size@?$QList@VQString@@@@QBEHXZ 10020270 f i lxwebpluginfactory.obj
 0001:0001f290       ?supportsExtension@LxWebPluginFactory@@UBE_NW4Extension@QWebPluginFactory@@@Z 10020290 f i lxwebpluginfactory.obj
 0001:0001f2b0       ?swap@?$QList@UPlugin@QWebPluginFactory@@@@QAEXAAV1@@Z 100202b0 f i lxwebpluginfactory.obj
 0001:0001f2e0       ?t@Node@?$QList@PAVLxWebKitPluginInterface@@@@QAEAAPAVLxWebKitPluginInterface@@XZ 100202e0 f i lxwebpluginfactory.obj
 0001:0001f310       ?t@Node@?$QList@UMimeType@QWebPluginFactory@@@@QAEAAUMimeType@QWebPluginFactory@@XZ 10020310 f i lxwebpluginfactory.obj
 0001:0001f350       ?t@Node@?$QList@UPlugin@QWebPluginFactory@@@@QAEAAUPlugin@QWebPluginFactory@@XZ 10020350 f i lxwebpluginfactory.obj
 0001:0001f390       ?t@Node@?$QList@V?$QList@UPlugin@QWebPluginFactory@@@@@@QAEAAV?$QList@UPlugin@QWebPluginFactory@@@@XZ 10020390 f i lxwebpluginfactory.obj
 0001:0001f3c0       ?t@Node@?$QList@VQString@@@@QAEAAVQString@@XZ 100203c0 f i lxwebpluginfactory.obj
 0001:0001f3f0       ??0LxCoreApplication@@QAE@PAVQObject@@PAVQWebView@@VQString@@@Z 100203f0 f   lxcoreapplication.obj
 0001:0001f600       ??1LxCoreApplication@@UAE@XZ 10020600 f   lxcoreapplication.obj
 0001:0001f6e0       ?getDialogs@LxCoreApplication@@ABEPAVQObject@@XZ 100206e0 f   lxcoreapplication.obj
 0001:0001f700       ?getLib@LxCoreApplication@@ABEPAVQObject@@XZ 10020700 f   lxcoreapplication.obj
 0001:0001f730       ?getFile@LxCoreApplication@@ABEPAVQObject@@XZ 10020730 f   lxcoreapplication.obj
 0001:0001f760       ?getDir@LxCoreApplication@@ABEPAVQObject@@XZ 10020760 f   lxcoreapplication.obj
 0001:0001f790       ?getArguments@LxCoreApplication@@ABE?AVQVariant@@XZ 10020790 f   lxcoreapplication.obj
 0001:0001f820       ?getVersion@LxCoreApplication@@ABE?AVQVariant@@XZ 10020820 f   lxcoreapplication.obj
 0001:0001f8b0       ?getAppPath@LxCoreApplication@@ABE?AVQVariant@@XZ 100208b0 f   lxcoreapplication.obj
 0001:0001f940       ?clearMemoryCaches@LxCoreApplication@@AAEXXZ 10020940 f   lxcoreapplication.obj
 0001:0001f960       ?getHttpTool@LxCoreApplication@@AAEPAVQObject@@XZ 10020960 f   lxcoreapplication.obj
 0001:0001f9f0       ?getResources@LxCoreApplication@@AAEPAVQObject@@XZ 100209f0 f   lxcoreapplication.obj
 0001:0001fa80       ?execute@LxCoreApplication@@QAEHVQVariant@@0@Z 10020a80 f   lxcoreapplication.obj
 0001:0001ff60       ??0?$QMap@VQString@@V?$QPointer@VQObject@@@@@@QAE@XZ 10020f60 f i lxcoreapplication.obj
 0001:0001ff80       ??0?$QPointer@VLxBaseWin@@@@QAE@XZ 10020f80 f i lxcoreapplication.obj
 0001:0001ffa0       ??0?$QPointer@VLxDir@@@@QAE@XZ 10020fa0 f i lxcoreapplication.obj
 0001:0001ffc0       ??0?$QPointer@VLxFile@@@@QAE@XZ 10020fc0 f i lxcoreapplication.obj
 0001:0001ffe0       ??0?$QPointer@VLxLibManager@@@@QAE@XZ 10020fe0 f i lxcoreapplication.obj
 0001:00020000       ??0?$QPointer@VQObject@@@@QAE@XZ 10021000 f i lxcoreapplication.obj
 0001:00020020       ??1?$QMap@VQString@@V?$QPointer@VQObject@@@@@@QAE@XZ 10021020 f i lxcoreapplication.obj
 0001:00020050       ??1?$QPointer@VLxBaseWin@@@@QAE@XZ 10021050 f i lxcoreapplication.obj
 0001:00020070       ??1?$QPointer@VLxDir@@@@QAE@XZ 10021070 f i lxcoreapplication.obj
 0001:00020090       ??1?$QPointer@VLxFile@@@@QAE@XZ 10021090 f i lxcoreapplication.obj
 0001:000200b0       ??1?$QPointer@VLxLibManager@@@@QAE@XZ 100210b0 f i lxcoreapplication.obj
 0001:000200d0       ??1?$QPointer@VQObject@@@@QAE@XZ 100210d0 f i lxcoreapplication.obj
 0001:000200f0       ??4?$QPointer@VLxDir@@@@QAEAAV0@PAVLxDir@@@Z 100210f0 f i lxcoreapplication.obj
 0001:00020120       ??4?$QPointer@VLxFile@@@@QAEAAV0@PAVLxFile@@@Z 10021120 f i lxcoreapplication.obj
 0001:00020150       ??4?$QPointer@VLxLibManager@@@@QAEAAV0@PAVLxLibManager@@@Z 10021150 f i lxcoreapplication.obj
 0001:00020180       ??4?$QPointer@VQObject@@@@QAEAAV0@PAVQObject@@@Z 10021180 f i lxcoreapplication.obj
 0001:000201b0       ??B?$QPointer@VLxDir@@@@QBEPAVLxDir@@XZ 100211b0 f i lxcoreapplication.obj
 0001:000201d0       ??B?$QPointer@VLxFile@@@@QBEPAVLxFile@@XZ 100211d0 f i lxcoreapplication.obj
 0001:000201f0       ??B?$QPointer@VLxLibManager@@@@QBEPAVLxLibManager@@XZ 100211f0 f i lxcoreapplication.obj
 0001:00020210       ??B?$QPointer@VQObject@@@@QBEPAVQObject@@XZ 10021210 f i lxcoreapplication.obj
 0001:00020230       ??B?$QPointer@VQWebView@@@@QBEPAVQWebView@@XZ 10021230 f i lxcoreapplication.obj
 0001:00020250       ??C?$QPointer@VLxLibManager@@@@QBEPAVLxLibManager@@XZ 10021250 f i lxcoreapplication.obj
 0001:00020270       ??_ELxCoreApplication@@UAEPAXI@Z 10021270 f i lxcoreapplication.obj
 0001:00020300       ??_G?$QPointer@VQObject@@@@QAEPAXI@Z 10021300 f i lxcoreapplication.obj
 0001:00020340       ??_GLxCoreApplication@@UAEPAXI@Z 10021340 f i lxcoreapplication.obj
 0001:00020380       ?data@?$QPointer@VLxDir@@@@QBEPAVLxDir@@XZ 10021380 f i lxcoreapplication.obj
 0001:000203a0       ?data@?$QPointer@VLxFile@@@@QBEPAVLxFile@@XZ 100213a0 f i lxcoreapplication.obj
 0001:000203c0       ?data@?$QPointer@VLxLibManager@@@@QBEPAVLxLibManager@@XZ 100213c0 f i lxcoreapplication.obj
 0001:000203e0       ?data@?$QPointer@VQObject@@@@QBEPAVQObject@@XZ 100213e0 f i lxcoreapplication.obj
 0001:00020400       ?data@?$QPointer@VQWebView@@@@QBEPAVQWebView@@XZ 10021400 f i lxcoreapplication.obj
 0001:00020420       ?destroy@?$QMapData@VQString@@V?$QPointer@VQObject@@@@@@QAEXXZ 10021420 f i lxcoreapplication.obj
 0001:00020480       ?destroySubTree@?$QMapNode@VQString@@V?$QPointer@VQObject@@@@@@QAEXXZ 10021480 f i lxcoreapplication.obj
 0001:00020510       ?leftNode@?$QMapNode@VQString@@V?$QPointer@VQObject@@@@@@QBEPAU1@XZ 10021510 f i lxcoreapplication.obj
 0001:00020530       ?rightNode@?$QMapNode@VQString@@V?$QPointer@VQObject@@@@@@QBEPAU1@XZ 10021530 f i lxcoreapplication.obj
 0001:00020550       ?root@?$QMapData@VQString@@V?$QPointer@VQObject@@@@@@QBEPAU?$QMapNode@VQString@@V?$QPointer@VQObject@@@@@@XZ 10021550 f i lxcoreapplication.obj
 0001:00020570       ??0LxDialogBase@@QAE@PAVQObject@@PAVQWebView@@VQString@@_NHH@Z 10021570 f   lxdialogoperate.obj
 0001:00020b30       ??1LxDialogBase@@UAE@XZ    10021b30 f   lxdialogoperate.obj
 0001:00020c00       ?move@LxDialogBase@@UAEXXZ 10021c00 f   lxdialogoperate.obj
 0001:00020c70       ?move@LxDialogBase@@UAEXHH@Z 10021c70 f   lxdialogoperate.obj
 0001:00020cc0       ?showMinimized@LxDialogBase@@UAEXXZ 10021cc0 f   lxdialogoperate.obj
 0001:00020d10       ?showMaximized@LxDialogBase@@UAEXXZ 10021d10 f   lxdialogoperate.obj
 0001:00020d80       ?close@LxDialogBase@@UAEXXZ 10021d80 f   lxdialogoperate.obj
 0001:00020dd0       ?showNormal@LxDialogBase@@UAEXXZ 10021dd0 f   lxdialogoperate.obj
 0001:00020f40       ?isMinimized@LxDialogBase@@UAE_NXZ 10021f40 f   lxdialogoperate.obj
 0001:00020f90       ?isMaximized@LxDialogBase@@UAE_NXZ 10021f90 f   lxdialogoperate.obj
 0001:00020fe0       ?isFullScreen@LxDialogBase@@UAE_NXZ 10021fe0 f   lxdialogoperate.obj
 0001:00021030       ?minimumWidth@LxDialogBase@@UAEHXZ 10022030 f   lxdialogoperate.obj
 0001:00021080       ?minimumHeight@LxDialogBase@@UAEHXZ 10022080 f   lxdialogoperate.obj
 0001:000210d0       ?maximumWidth@LxDialogBase@@UAEHXZ 100220d0 f   lxdialogoperate.obj
 0001:00021120       ?maximumHeight@LxDialogBase@@UAEHXZ 10022120 f   lxdialogoperate.obj
 0001:00021170       ?setMinimumSize@LxDialogBase@@UAEXHH@Z 10022170 f   lxdialogoperate.obj
 0001:000211d0       ?setMaximumSize@LxDialogBase@@UAEXHH@Z 100221d0 f   lxdialogoperate.obj
 0001:00021230       ?setMinimumWidth@LxDialogBase@@UAEXH@Z 10022230 f   lxdialogoperate.obj
 0001:00021280       ?setMinimumHeight@LxDialogBase@@UAEXH@Z 10022280 f   lxdialogoperate.obj
 0001:000212d0       ?setMaximumWidth@LxDialogBase@@UAEXH@Z 100222d0 f   lxdialogoperate.obj
 0001:00021320       ?setMaximumHeight@LxDialogBase@@UAEXH@Z 10022320 f   lxdialogoperate.obj
 0001:00021370       ?show@LxDialogBase@@UAEXXZ 10022370 f   lxdialogoperate.obj
 0001:000213c0       ?setDialogWH@LxDialogBase@@UAEXVQVariant@@0@Z 100223c0 f   lxdialogoperate.obj
 0001:00021550       ?reload@LxDialogBase@@UAEXXZ 10022550 f   lxdialogoperate.obj
 0001:000215c0       ?openUrl@LxDialogBase@@UAEXVQVariant@@@Z 100225c0 f   lxdialogoperate.obj
 0001:00021680       ?getTopLeftX@LxDialogBase@@UAEHXZ 10022680 f   lxdialogoperate.obj
 0001:000216e0       ?getTopLeftY@LxDialogBase@@UAEHXZ 100226e0 f   lxdialogoperate.obj
 0001:00021740       ?setUrl@LxDialogBase@@UAEXVQString@@@Z 10022740 f   lxdialogoperate.obj
 0001:00021800       ?setVisible@LxDialogBase@@UAEX_N@Z 10022800 f   lxdialogoperate.obj
 0001:00021860       ?setHidden@LxDialogBase@@UAEX_N@Z 10022860 f   lxdialogoperate.obj
 0001:000218b0       ?printPreview@LxDialogBase@@UAEXXZ 100228b0 f   lxdialogoperate.obj
 0001:00021a00       ?eval@LxDialogBase@@UAE?AVQVariant@@V2@@Z 10022a00 f   lxdialogoperate.obj
 0001:00021ae0       ?toHTML@LxDialogBase@@UAE?AVQVariant@@XZ 10022ae0 f   lxdialogoperate.obj
 0001:00021b90       ?setHTML@LxDialogBase@@UAEXVQVariant@@@Z 10022b90 f   lxdialogoperate.obj
 0001:00021c60       ?getCoreDialog@LxDialogBase@@UAEPAVQObject@@XZ 10022c60 f   lxdialogoperate.obj
 0001:00021ca0       ?downloadRequested@LxDialogBase@@AAEXABVQNetworkRequest@@@Z 10022ca0 f   lxdialogoperate.obj
 0001:00021ce0       ?loadFinished@LxDialogBase@@AAEX_N@Z 10022ce0 f   lxdialogoperate.obj
 0001:00022300       ??0?$QFlags@W4AlignmentFlag@Qt@@@@QAE@W4AlignmentFlag@Qt@@@Z 10023300 f i lxdialogoperate.obj
 0001:00022320       ??C?$QPointer@VQWebView@@@@QBEPAVQWebView@@XZ 10023320 f i lxdialogoperate.obj
 0001:00022340       ??_ELxDialogBase@@UAEPAXI@Z 10023340 f i lxdialogoperate.obj
 0001:000223c4       ??_EQBoxLayout@@W7AEPAXI@Z 100233c4 f i lxdialogoperate.obj
 0001:000223ce       ??_EQLabel@@W7AEPAXI@Z     100233ce f i lxdialogoperate.obj
 0001:000223d8       ??_EQPrintPreviewDialog@@W7AEPAXI@Z 100233d8 f i lxdialogoperate.obj
 0001:000223f0       ??_GLxDialogBase@@UAEPAXI@Z 100233f0 f i lxdialogoperate.obj
 0001:00022430       ??_GQBoxLayout@@UAEPAXI@Z  10023430 f i lxdialogoperate.obj
 0001:00022430       ??_EQBoxLayout@@UAEPAXI@Z  10023430 f i lxdialogoperate.obj
 0001:00022470       ??_GQLabel@@UAEPAXI@Z      10023470 f i lxdialogoperate.obj
 0001:00022470       ??_EQLabel@@UAEPAXI@Z      10023470 f i lxdialogoperate.obj
 0001:000224b0       ??_EQMovie@@UAEPAXI@Z      100234b0 f i lxdialogoperate.obj
 0001:000224b0       ??_GQMovie@@UAEPAXI@Z      100234b0 f i lxdialogoperate.obj
 0001:000224f0       ??_EQPrintPreviewDialog@@UAEPAXI@Z 100234f0 f i lxdialogoperate.obj
 0001:000224f0       ??_GQPrintPreviewDialog@@UAEPAXI@Z 100234f0 f i lxdialogoperate.obj
 0001:00022530       ?AppIsRunning@@YA_NH@Z     10023530 f i lxdialogoperate.obj
 0001:00022540       ??0LxDialogs@@QAE@PAVQObject@@@Z 10023540 f   lxdialogs.obj
 0001:000225e0       ??1LxDialogs@@UAE@XZ       100235e0 f   lxdialogs.obj
 0001:00022650       ?append@LxDialogs@@UAEXVQString@@PAVLxDialogBase@@@Z 10023650 f   lxdialogs.obj
 0001:00022710       ?get@LxDialogs@@UAEPAVQObject@@VQString@@@Z 10023710 f   lxdialogs.obj
 0001:000227c0       ?count@LxDialogs@@UAE?AVQVariant@@XZ 100237c0 f   lxdialogs.obj
 0001:00022800       ?add@LxDialogs@@UAEPAVQObject@@VQString@@0@Z 10023800 f   lxdialogs.obj
 0001:00022ce0       ?remove@LxDialogs@@UAE?AVQVariant@@VQString@@@Z 10023ce0 f   lxdialogs.obj
 0001:00022dd0       ?closeAll@LxDialogs@@UAEXXZ 10023dd0 f   lxdialogs.obj
 0001:00023120       ??0?$QMap@VQString@@PAVLxDialogBase@@@@QAE@XZ 10024120 f i lxdialogs.obj
 0001:00023140       ??0?$QPointer@VLxMainWindow@@@@QAE@XZ 10024140 f i lxdialogs.obj
 0001:00023160       ??0iterator@?$QMap@VQString@@PAVLxDialogBase@@@@QAE@PAU?$QMapNode@VQString@@PAVLxDialogBase@@@@@Z 10024160 f i lxdialogs.obj
 0001:00023180       ??0iterator@?$QMap@VQString@@PAVLxDialogBase@@@@QAE@XZ 10024180 f i lxdialogs.obj
 0001:000231a0       ??1?$QMap@VQString@@PAVLxDialogBase@@@@QAE@XZ 100241a0 f i lxdialogs.obj
 0001:000231d0       ??1?$QPointer@VLxMainWindow@@@@QAE@XZ 100241d0 f i lxdialogs.obj
 0001:000231f0       ??4?$QPointer@VLxMainWindow@@@@QAEAAV0@PAVLxMainWindow@@@Z 100241f0 f i lxdialogs.obj
 0001:00023220       ??9@YA_NABVQString@@0@Z    10024220 f i lxdialogs.obj
 0001:00023260       ??9iterator@?$QMap@VQString@@PAVLxDialogBase@@@@QBE_NABV01@@Z 10024260 f i lxdialogs.obj
 0001:000232a0       ??A?$QMap@VQString@@PAVLxDialogBase@@@@QAEAAPAVLxDialogBase@@ABVQString@@@Z 100242a0 f i lxdialogs.obj
 0001:00023310       ??Diterator@?$QMap@VQString@@PAVLxDialogBase@@@@QBEAAPAVLxDialogBase@@XZ 10024310 f i lxdialogs.obj
 0001:00023330       ??Eiterator@?$QMap@VQString@@PAVLxDialogBase@@@@QAEAAV01@XZ 10024330 f i lxdialogs.obj
 0001:00023360       ??_ELxDialogs@@UAEPAXI@Z   10024360 f i lxdialogs.obj
 0001:000233f0       ??_GLxDialogs@@UAEPAXI@Z   100243f0 f i lxdialogs.obj
 0001:00023430       ?begin@?$QMap@VQString@@PAVLxDialogBase@@@@QAE?AViterator@1@XZ 10024430 f i lxdialogs.obj
 0001:00023470       ?begin@?$QMapData@VQString@@PAVLxDialogBase@@@@QAEPAU?$QMapNode@VQString@@PAVLxDialogBase@@@@XZ 10024470 f i lxdialogs.obj
 0001:000234a0       ?contains@?$QMap@VQString@@PAVLxDialogBase@@@@QBE_NABVQString@@@Z 100244a0 f i lxdialogs.obj
 0001:000234f0       ?copy@?$QMapNode@VQString@@PAVLxDialogBase@@@@QBEPAU1@PAU?$QMapData@VQString@@PAVLxDialogBase@@@@@Z 100244f0 f i lxdialogs.obj
 0001:000235e0       ?count@?$QMap@VQString@@PAVLxDialogBase@@@@QBEHXZ 100245e0 f i lxdialogs.obj
 0001:00023600       ?create@?$QMapData@VQString@@PAVLxDialogBase@@@@SAPAU1@XZ 10024600 f i lxdialogs.obj
 0001:00023610       ?createNode@?$QMapData@VQString@@PAVLxDialogBase@@@@QAEPAU?$QMapNode@VQString@@PAVLxDialogBase@@@@ABVQString@@ABQAVLxDialogBase@@PAU2@_N@Z 10024610 f i lxdialogs.obj
 0001:000237a0       ?deleteNode@?$QMapData@VQString@@PAVLxDialogBase@@@@QAEXPAU?$QMapNode@VQString@@PAVLxDialogBase@@@@@Z 100247a0 f i lxdialogs.obj
 0001:000237e0       ?destroy@?$QMapData@VQString@@PAVLxDialogBase@@@@QAEXXZ 100247e0 f i lxdialogs.obj
 0001:00023840       ?destroySubTree@?$QMapNode@VQString@@PAVLxDialogBase@@@@QAEXXZ 10024840 f i lxdialogs.obj
 0001:000238b0       ?detach@?$QMap@VQString@@PAVLxDialogBase@@@@QAEXXZ 100248b0 f i lxdialogs.obj
 0001:000238e0       ?detach_helper@?$QMap@VQString@@PAVLxDialogBase@@@@AAEXXZ 100248e0 f i lxdialogs.obj
 0001:00023980       ?end@?$QMap@VQString@@PAVLxDialogBase@@@@QAE?AViterator@1@XZ 10024980 f i lxdialogs.obj
 0001:000239c0       ?end@?$QMapData@VQString@@PAVLxDialogBase@@@@QAEPAU?$QMapNode@VQString@@PAVLxDialogBase@@@@XZ 100249c0 f i lxdialogs.obj
 0001:000239e0       ?findNode@?$QMapData@VQString@@PAVLxDialogBase@@@@QBEPAU?$QMapNode@VQString@@PAVLxDialogBase@@@@ABVQString@@@Z 100249e0 f i lxdialogs.obj
 0001:00023a50       ?insert@?$QMap@VQString@@PAVLxDialogBase@@@@QAE?AViterator@1@ABVQString@@ABQAVLxDialogBase@@@Z 10024a50 f i lxdialogs.obj
 0001:00023b80       ?isNetWorkPath@@YA_NVQString@@@Z 10024b80 f i lxdialogs.obj
 0001:00023e00       ?key@iterator@?$QMap@VQString@@PAVLxDialogBase@@@@QBEABVQString@@XZ 10024e00 f i lxdialogs.obj
 0001:00023e20       ?leftNode@?$QMapNode@VQString@@PAVLxDialogBase@@@@QBEPAU1@XZ 10024e20 f i lxdialogs.obj
 0001:00023e40       ?lowerBound@?$QMapNode@VQString@@PAVLxDialogBase@@@@QAEPAU1@ABVQString@@@Z 10024e40 f i lxdialogs.obj
 0001:00023ec0       ?nextNode@?$QMapNode@VQString@@PAVLxDialogBase@@@@QAEPAU1@XZ 10024ec0 f i lxdialogs.obj
 0001:00023ee0       ?remove@?$QMap@VQString@@PAVLxDialogBase@@@@QAEHABVQString@@@Z 10024ee0 f i lxdialogs.obj
 0001:00023f50       ?rightNode@?$QMapNode@VQString@@PAVLxDialogBase@@@@QBEPAU1@XZ 10024f50 f i lxdialogs.obj
 0001:00023f70       ?root@?$QMapData@VQString@@PAVLxDialogBase@@@@QBEPAU?$QMapNode@VQString@@PAVLxDialogBase@@@@XZ 10024f70 f i lxdialogs.obj
 0001:00023f90       ?value@iterator@?$QMap@VQString@@PAVLxDialogBase@@@@QBEAAPAVLxDialogBase@@XZ 10024f90 f i lxdialogs.obj
 0001:00023fb0       ??0LxDir@@QAE@PAVQObject@@@Z 10024fb0 f   lxdir.obj
 0001:00023ff0       ?exists@LxDir@@UAE?AVQVariant@@V2@VQString@@@Z 10024ff0 f   lxdir.obj
 0001:000240f0       ?mkdir@LxDir@@UAE?AVQVariant@@V2@VQString@@@Z 100250f0 f   lxdir.obj
 0001:00024220       ?mkpath@LxDir@@UAE?AVQVariant@@V2@VQString@@@Z 10025220 f   lxdir.obj
 0001:00024350       ?entryList@LxDir@@UAE?AVQVariant@@V2@000VQString@@@Z 10025350 f   lxdir.obj
 0001:00024660       ??0?$QFlags@W4Filter@QDir@@@@QAE@VQFlag@@@Z 10025660 f i lxdir.obj
 0001:00024690       ??0?$QFlags@W4SortFlag@QDir@@@@QAE@VQFlag@@@Z 10025690 f i lxdir.obj
 0001:000246c0       ??1LxDir@@UAE@XZ           100256c0 f i lxdir.obj
 0001:000246e0       ??_GLxDir@@UAEPAXI@Z       100256e0 f i lxdir.obj
 0001:000246e0       ??_ELxDir@@UAEPAXI@Z       100256e0 f i lxdir.obj
 0001:00024720       ??0LxFile@@QAE@PAVQObject@@@Z 10025720 f   lxfile.obj
 0001:00024760       ??0LxFile@@QAE@PAVQObject@@PAVQWebView@@VQString@@@Z 10025760 f   lxfile.obj
 0001:000247f0       ??1LxFile@@UAE@XZ          100257f0 f   lxfile.obj
 0001:00024810       ?readFileData@LxFile@@UAE?AVQVariant@@V2@VQString@@@Z 10025810 f   lxfile.obj
 0001:000249f0       ?isExits@LxFile@@UAE?AVQVariant@@V2@@Z 100259f0 f   lxfile.obj
 0001:00024b00       ?remove@LxFile@@UAE?AVQVariant@@V2@@Z 10025b00 f   lxfile.obj
 0001:00024c00       ?rename@LxFile@@UAE?AVQVariant@@V2@0@Z 10025c00 f   lxfile.obj
 0001:00024d50       ?link@LxFile@@UAE?AVQVariant@@V2@0@Z 10025d50 f   lxfile.obj
 0001:00024e40       ?copy@LxFile@@UAE?AVQVariant@@V2@0@Z 10025e40 f   lxfile.obj
 0001:00025000       ?size@LxFile@@UAE?AVQVariant@@V2@@Z 10026000 f   lxfile.obj
 0001:000250c0       ?permissions@LxFile@@UAE?AVQVariant@@V2@@Z 100260c0 f   lxfile.obj
 0001:00025180       ?write@LxFile@@UAE?AVQVariant@@V2@0VQString@@@Z 10026180 f   lxfile.obj
 0001:000256e0       ??_ELxFile@@UAEPAXI@Z      100266e0 f i lxfile.obj
 0001:00025770       ??_GLxFile@@UAEPAXI@Z      10026770 f i lxfile.obj
 0001:000257b0       ??0LxLibManager@@QAE@PAVQObject@@@Z 100267b0 f   lxlibmanager.obj
 0001:00025830       ??1LxLibManager@@UAE@XZ    10026830 f   lxlibmanager.obj
 0001:000258a0       ?initialize@LxLibManager@@UAEXPAVQWebView@@@Z 100268a0 f   lxlibmanager.obj
 0001:000258f0       ?count@LxLibManager@@UAE?AVQVariant@@XZ 100268f0 f   lxlibmanager.obj
 0001:00025930       ?add@LxLibManager@@UAEPAVQObject@@VQString@@0@Z 10026930 f   lxlibmanager.obj
 0001:00025a30       ?remove@LxLibManager@@UAE?AVQVariant@@VQString@@@Z 10026a30 f   lxlibmanager.obj
 0001:00025b50       ?get@LxLibManager@@UAEPAVQObject@@VQString@@@Z 10026b50 f   lxlibmanager.obj
 0001:00025cc0       ??0?$QMap@VQString@@PAVLxLibrary@@@@QAE@XZ 10026cc0 f i lxlibmanager.obj
 0001:00025ce0       ??0?$QPointer@VQWebView@@@@QAE@XZ 10026ce0 f i lxlibmanager.obj
 0001:00025d00       ??0iterator@?$QMap@VQString@@PAVLxLibrary@@@@QAE@PAU?$QMapNode@VQString@@PAVLxLibrary@@@@@Z 10026d00 f i lxlibmanager.obj
 0001:00025d20       ??1?$QMap@VQString@@PAVLxLibrary@@@@QAE@XZ 10026d20 f i lxlibmanager.obj
 0001:00025d50       ??1?$QPointer@VQWebView@@@@QAE@XZ 10026d50 f i lxlibmanager.obj
 0001:00025d70       ??4?$QPointer@VQWebView@@@@QAEAAV0@PAVQWebView@@@Z 10026d70 f i lxlibmanager.obj
 0001:00025da0       ??A?$QMap@VQString@@PAVLxLibrary@@@@QAEAAPAVLxLibrary@@ABVQString@@@Z 10026da0 f i lxlibmanager.obj
 0001:00025e10       ??Diterator@?$QMap@VQString@@PAVLxLibrary@@@@QBEAAPAVLxLibrary@@XZ 10026e10 f i lxlibmanager.obj
 0001:00025e30       ??_ELxLibManager@@UAEPAXI@Z 10026e30 f i lxlibmanager.obj
 0001:00025e30       ??_GLxLibManager@@UAEPAXI@Z 10026e30 f i lxlibmanager.obj
 0001:00025e70       ?contains@?$QMap@VQString@@PAVLxLibrary@@@@QBE_NABVQString@@@Z 10026e70 f i lxlibmanager.obj
 0001:00025ec0       ?copy@?$QMapNode@VQString@@PAVLxLibrary@@@@QBEPAU1@PAU?$QMapData@VQString@@PAVLxLibrary@@@@@Z 10026ec0 f i lxlibmanager.obj
 0001:00025fb0       ?count@?$QMap@VQString@@PAVLxLibrary@@@@QBEHXZ 10026fb0 f i lxlibmanager.obj
 0001:00025fd0       ?create@?$QMapData@VQString@@PAVLxLibrary@@@@SAPAU1@XZ 10026fd0 f i lxlibmanager.obj
 0001:00025fe0       ?createNode@?$QMapData@VQString@@PAVLxLibrary@@@@QAEPAU?$QMapNode@VQString@@PAVLxLibrary@@@@ABVQString@@ABQAVLxLibrary@@PAU2@_N@Z 10026fe0 f i lxlibmanager.obj
 0001:00026170       ?deleteNode@?$QMapData@VQString@@PAVLxLibrary@@@@QAEXPAU?$QMapNode@VQString@@PAVLxLibrary@@@@@Z 10027170 f i lxlibmanager.obj
 0001:000261b0       ?destroy@?$QMapData@VQString@@PAVLxLibrary@@@@QAEXXZ 100271b0 f i lxlibmanager.obj
 0001:00026210       ?destroySubTree@?$QMapNode@VQString@@PAVLxLibrary@@@@QAEXXZ 10027210 f i lxlibmanager.obj
 0001:00026280       ?detach@?$QMap@VQString@@PAVLxLibrary@@@@QAEXXZ 10027280 f i lxlibmanager.obj
 0001:000262b0       ?detach_helper@?$QMap@VQString@@PAVLxLibrary@@@@AAEXXZ 100272b0 f i lxlibmanager.obj
 0001:00026350       ?end@?$QMapData@VQString@@PAVLxLibrary@@@@QAEPAU?$QMapNode@VQString@@PAVLxLibrary@@@@XZ 10027350 f i lxlibmanager.obj
 0001:00026370       ?findNode@?$QMapData@VQString@@PAVLxLibrary@@@@QBEPAU?$QMapNode@VQString@@PAVLxLibrary@@@@ABVQString@@@Z 10027370 f i lxlibmanager.obj
 0001:000263e0       ?insert@?$QMap@VQString@@PAVLxLibrary@@@@QAE?AViterator@1@ABVQString@@ABQAVLxLibrary@@@Z 100273e0 f i lxlibmanager.obj
 0001:00026510       ?leftNode@?$QMapNode@VQString@@PAVLxLibrary@@@@QBEPAU1@XZ 10027510 f i lxlibmanager.obj
 0001:00026530       ?lowerBound@?$QMapNode@VQString@@PAVLxLibrary@@@@QAEPAU1@ABVQString@@@Z 10027530 f i lxlibmanager.obj
 0001:000265b0       ?remove@?$QMap@VQString@@PAVLxLibrary@@@@QAEHABVQString@@@Z 100275b0 f i lxlibmanager.obj
 0001:00026620       ?rightNode@?$QMapNode@VQString@@PAVLxLibrary@@@@QBEPAU1@XZ 10027620 f i lxlibmanager.obj
 0001:00026640       ?root@?$QMapData@VQString@@PAVLxLibrary@@@@QBEPAU?$QMapNode@VQString@@PAVLxLibrary@@@@XZ 10027640 f i lxlibmanager.obj
 0001:00026660       ??0LxLibrary@@QAE@PAVQObject@@@Z 10027660 f   lxlibrary.obj
 0001:000266e0       ??1LxLibrary@@UAE@XZ       100276e0 f   lxlibrary.obj
 0001:00026750       ?initialize@LxLibrary@@QAEXPAVQWebView@@@Z 10027750 f   lxlibrary.obj
 0001:000267a0       ?load@LxLibrary@@UAE?AVQVariant@@VQString@@@Z 100277a0 f   lxlibrary.obj
 0001:000269a0       ?exec@LxLibrary@@UAE?AVQVariant@@VQString@@V2@0@Z 100279a0 f   lxlibrary.obj
 0001:00026dd0       ?unload@LxLibrary@@UAE?AVQVariant@@XZ 10027dd0 f   lxlibrary.obj
 0001:00027040       ??0?$QPointer@VQLibrary@@@@QAE@XZ 10028040 f i lxlibrary.obj
 0001:00027060       ??1?$QPointer@VQLibrary@@@@QAE@XZ 10028060 f i lxlibrary.obj
 0001:00027080       ??4?$QPointer@VQLibrary@@@@QAEAAV0@PAVQLibrary@@@Z 10028080 f i lxlibrary.obj
 0001:000270b0       ??C?$QPointer@VQLibrary@@@@QBEPAVQLibrary@@XZ 100280b0 f i lxlibrary.obj
 0001:000270d0       ??_ELxLibrary@@UAEPAXI@Z   100280d0 f i lxlibrary.obj
 0001:00027160       ??_GLxLibrary@@UAEPAXI@Z   10028160 f i lxlibrary.obj
 0001:000271a0       ??_EQLibrary@@UAEPAXI@Z    100281a0 f i lxlibrary.obj
 0001:000271a0       ??_GQLibrary@@UAEPAXI@Z    100281a0 f i lxlibrary.obj
 0001:000271e0       ?data@?$QPointer@VQLibrary@@@@QBEPAVQLibrary@@XZ 100281e0 f i lxlibrary.obj
 0001:00027200       ?isNull@?$QPointer@VQLibrary@@@@QBE_NXZ 10028200 f i lxlibrary.obj
 0001:00027220       ?isNull@?$QPointer@VQWebView@@@@QBE_NXZ 10028220 f i lxlibrary.obj
 0001:00027240       ?isNull@?$QWeakPointer@VQObject@@@@QBE_NXZ 10028240 f i lxlibrary.obj
 0001:000272a0       ??0lomox@@QAE@XZ           100282a0 f   lomox.obj
 0001:000272b0       ??1lomox@@QAE@XZ           100282b0 f   lomox.obj
 0001:000272d0       ??4lomox@@QAEAAV0@ABV0@@Z  100282d0 f i lomox.obj
 0001:000272f0       ??0LxOperate@@QAE@PAVQObject@@PAVQWebView@@VQString@@@Z 100282f0 f   lxoperate.obj
 0001:00027410       ??1LxOperate@@UAE@XZ       10028410 f   lxoperate.obj
 0001:00027490       ?setupJsAPIObject@LxOperate@@QAE_NXZ 10028490 f   lxoperate.obj
 0001:000275c0       ??4?$QPointer@VQWebPage@@@@QAEAAV0@PAVQWebPage@@@Z 100285c0 f i lxoperate.obj
 0001:000275f0       ??B?$QPointer@VQWebPage@@@@QBEPAVQWebPage@@XZ 100285f0 f i lxoperate.obj
 0001:00027610       ??C?$QPointer@VQWebPage@@@@QBEPAVQWebPage@@XZ 10028610 f i lxoperate.obj
 0001:00027630       ??_ELxOperate@@UAEPAXI@Z   10028630 f i lxoperate.obj
 0001:000276c0       ??_GLxOperate@@UAEPAXI@Z   100286c0 f i lxoperate.obj
 0001:00027700       ?data@?$QPointer@VQWebPage@@@@QBEPAVQWebPage@@XZ 10028700 f i lxoperate.obj
 0001:00027720       ?setupApiObject@LX_UTILITYTOOL@@YA_NPAVQWebPage@@VQString@@PAVQObject@@@Z 10028720 f i lxoperate.obj
 0001:00027810       ??0LxSqlQuery@@QAE@XZ      10028810 f   lxsqlquery.obj
 0001:000278c0       ??1LxSqlQuery@@UAE@XZ      100288c0 f   lxsqlquery.obj
 0001:00027930       ?exec@LxSqlQuery@@QAE_NABVQString@@@Z 10028930 f   lxsqlquery.obj
 0001:00027950       ?value@LxSqlQuery@@QAE?AVQVariant@@H@Z 10028950 f   lxsqlquery.obj
 0001:00027990       ?next@LxSqlQuery@@QAE_NXZ  10028990 f   lxsqlquery.obj
 0001:000279b0       ?previous@LxSqlQuery@@QAE_NXZ 100289b0 f   lxsqlquery.obj
 0001:00027a40       ??_ELxSqlQuery@@UAEPAXI@Z  10028a40 f i lxsqlquery.obj
 0001:00027ad0       ??_GLxSqlQuery@@UAEPAXI@Z  10028ad0 f i lxsqlquery.obj
 0001:00027b10       ??0LxOption@@QAE@PAVQObject@@@Z 10028b10 f   lxoption.obj
 0001:00027b40       ??1LxOption@@UAE@XZ        10028b40 f   lxoption.obj
 0001:00027b60       ?getStartResourceFileName@LxOption@@QAE?AVQString@@XZ 10028b60 f   lxoption.obj
 0001:00027bf0       ?getStartUrl@LxOption@@QAE?AVQString@@XZ 10028bf0 f   lxoption.obj
 0001:00028190       ?getAppPath@LxOption@@QAE?AVQString@@XZ 10029190 f   lxoption.obj
 0001:000281c0       ?getCoreAppOption@LxOption@@QAEPAVQObject@@XZ 100291c0 f   lxoption.obj
 0001:000281e0       ?getConfgPath@LxOption@@QAE?AVQString@@XZ 100291e0 f   lxoption.obj
 0001:000282a0       ?getMainTitle@LxOption@@QAE?AVQString@@XZ 100292a0 f   lxoption.obj
 0001:000284e0       ?getNeedShowMainNcFrame@LxOption@@QAE_NXZ 100294e0 f   lxoption.obj
 0001:00028670       ?getNeedShowChildNcFrame@LxOption@@QAE_NXZ 10029670 f   lxoption.obj
 0001:00028800       ?getMainWindowStaysOnTopHint@LxOption@@QAE_NXZ 10029800 f   lxoption.obj
 0001:00028990       ?getChildWindowStaysOnTopHint@LxOption@@QAE_NXZ 10029990 f   lxoption.obj
 0001:00028b20       ?getDialogsRelationShip@LxOption@@QAE_NXZ 10029b20 f   lxoption.obj
 0001:00028cb0       ?getNeedSystemTray@LxOption@@QAE_NXZ 10029cb0 f   lxoption.obj
 0001:00028e40       ?getSystemTrayIconName@LxOption@@QAE?AVQString@@XZ 10029e40 f   lxoption.obj
 0001:00029080       ?getLoadHrefInCurrentMainDialog@LxOption@@QAE_NXZ 1002a080 f   lxoption.obj
 0001:000290d0       ?getLoadHrefInCurrentChildDialog@LxOption@@QAE_NXZ 1002a0d0 f   lxoption.obj
 0001:00029120       ?getNeedShowLoadingGif@LxOption@@QAE_NXZ 1002a120 f   lxoption.obj
 0001:000292b0       ?getLoadingGifWidth@LxOption@@QAEHXZ 1002a2b0 f   lxoption.obj
 0001:00029430       ?getLoadingGifHeight@LxOption@@QAEHXZ 1002a430 f   lxoption.obj
 0001:000295b0       ?getValueFromIni@LxOption@@AAE_NVQString@@AA_N@Z 1002a5b0 f   lxoption.obj
 0001:00029e30       ??_GLxOption@@UAEPAXI@Z    1002ae30 f i lxoption.obj
 0001:00029e30       ??_ELxOption@@UAEPAXI@Z    1002ae30 f i lxoption.obj
 0001:00029e70       ??0LxHttp@@QAE@PAVQObject@@@Z 1002ae70 f   lxhttp.obj
 0001:00029ea0       ??1LxHttp@@UAE@XZ          1002aea0 f   lxhttp.obj
 0001:00029ec0       ?httpRequest@LxHttp@@QAE?AVQVariant@@V2@00@Z 1002aec0 f   lxhttp.obj
 0001:0002aa70       ?httpRequestWithEncode@LxHttp@@QAE?AVQVariant@@V2@000@Z 1002ba70 f   lxhttp.obj
 0001:0002bcf0       ??0?$QFlags@W4ProcessEventsFlag@QEventLoop@@@@QAE@W4ProcessEventsFlag@QEventLoop@@@Z 1002ccf0 f i lxhttp.obj
 0001:0002bd10       ??_GLxHttp@@UAEPAXI@Z      1002cd10 f i lxhttp.obj
 0001:0002bd10       ??_ELxHttp@@UAEPAXI@Z      1002cd10 f i lxhttp.obj
 0001:0002bd50       ??0LxResources@@QAE@PAVQObject@@@Z 1002cd50 f   lxresources.obj
 0001:0002bd80       ??1LxResources@@UAE@XZ     1002cd80 f   lxresources.obj
 0001:0002bda0       ?registerResource@LxResources@@QAE_NVQString@@@Z 1002cda0 f   lxresources.obj
 0001:0002be30       ?unregisterResource@LxResources@@QAE_NVQString@@@Z 1002ce30 f   lxresources.obj
 0001:0002bec0       ?registerResourceFromRoot@LxResources@@QAE_NVQString@@0@Z 1002cec0 f   lxresources.obj
 0001:0002bf40       ?unregisterResourceFromRoot@LxResources@@QAE_NVQString@@0@Z 1002cf40 f   lxresources.obj
 0001:0002c090       ??_GLxResources@@UAEPAXI@Z 1002d090 f i lxresources.obj
 0001:0002c090       ??_ELxResources@@UAEPAXI@Z 1002d090 f i lxresources.obj
 0001:0002c0d0       _LomoxAppRun               1002d0d0 f   Lx_api.obj
 0001:0002c0f0       ?qt_metacast@QWidget@@UAEPAXPBD@Z 1002d0f0 f   Qt5Widgets:Qt5Widgets.dll
 0001:0002c0f6       ?qt_metacall@QWidget@@UAEHW4Call@QMetaObject@@HPAPAX@Z 1002d0f6 f   Qt5Widgets:Qt5Widgets.dll
 0001:0002c0fc       ?getSaveFileName@QFileDialog@@SA?AVQString@@PAVQWidget@@ABV2@11PAV2@V?$QFlags@W4Option@QFileDialog@@@@@Z 1002d0fc f   Qt5Widgets:Qt5Widgets.dll
 0001:0002c102       ??0QWidget@@QAE@PAV0@V?$QFlags@W4WindowType@Qt@@@@@Z 1002d102 f   Qt5Widgets:Qt5Widgets.dll
 0001:0002c108       ??1QWidget@@UAE@XZ         1002d108 f   Qt5Widgets:Qt5Widgets.dll
 0001:0002c10e       ?setParent@QWidget@@QAEXPAV1@@Z 1002d10e f   Qt5Widgets:Qt5Widgets.dll
 0001:0002c114       ?addAction@QWidget@@QAEXPAVQAction@@@Z 1002d114 f   Qt5Widgets:Qt5Widgets.dll
 0001:0002c11a       ??0QAction@@QAE@ABVQString@@PAVQObject@@@Z 1002d11a f   Qt5Widgets:Qt5Widgets.dll
 0001:0002c120       ??1QAction@@UAE@XZ         1002d120 f   Qt5Widgets:Qt5Widgets.dll
 0001:0002c126       ?setIcon@QAction@@QAEXABVQIcon@@@Z 1002d126 f   Qt5Widgets:Qt5Widgets.dll
 0001:0002c12c       ??0QSystemTrayIcon@@QAE@PAVQObject@@@Z 1002d12c f   Qt5Widgets:Qt5Widgets.dll
 0001:0002c132       ??1QSystemTrayIcon@@UAE@XZ 1002d132 f   Qt5Widgets:Qt5Widgets.dll
 0001:0002c138       ?setContextMenu@QSystemTrayIcon@@QAEXPAVQMenu@@@Z 1002d138 f   Qt5Widgets:Qt5Widgets.dll
 0001:0002c13e       ?setIcon@QSystemTrayIcon@@QAEXABVQIcon@@@Z 1002d13e f   Qt5Widgets:Qt5Widgets.dll
 0001:0002c144       ?setToolTip@QSystemTrayIcon@@QAEXABVQString@@@Z 1002d144 f   Qt5Widgets:Qt5Widgets.dll
 0001:0002c14a       ?show@QSystemTrayIcon@@QAEXXZ 1002d14a f   Qt5Widgets:Qt5Widgets.dll
 0001:0002c150       ??0QMenu@@QAE@PAVQWidget@@@Z 1002d150 f   Qt5Widgets:Qt5Widgets.dll
 0001:0002c156       ??1QMenu@@UAE@XZ           1002d156 f   Qt5Widgets:Qt5Widgets.dll
 0001:0002c15c       ?addSeparator@QMenu@@QAEPAVQAction@@XZ 1002d15c f   Qt5Widgets:Qt5Widgets.dll
 0001:0002c162       ?actionEvent@QMenu@@MAEXPAVQActionEvent@@@Z 1002d162 f   Qt5Widgets:Qt5Widgets.dll
 0001:0002c168       ?actionEvent@QWidget@@MAEXPAVQActionEvent@@@Z 1002d168 f   Qt5Widgets:Qt5Widgets.dll
 0001:0002c16e       ?changeEvent@QMenu@@MAEXPAVQEvent@@@Z 1002d16e f   Qt5Widgets:Qt5Widgets.dll
 0001:0002c174       ?changeEvent@QWidget@@MAEXPAVQEvent@@@Z 1002d174 f   Qt5Widgets:Qt5Widgets.dll
 0001:0002c17a       ?closeEvent@QWidget@@MAEXPAVQCloseEvent@@@Z 1002d17a f   Qt5Widgets:Qt5Widgets.dll
 0001:0002c180       ?contextMenuEvent@QWidget@@MAEXPAVQContextMenuEvent@@@Z 1002d180 f   Qt5Widgets:Qt5Widgets.dll
 0001:0002c186       ?devType@QWidget@@UBEHXZ   1002d186 f   Qt5Widgets:Qt5Widgets.dll
 0001:0002c18c       ?dragEnterEvent@QWidget@@MAEXPAVQDragEnterEvent@@@Z 1002d18c f   Qt5Widgets:Qt5Widgets.dll
 0001:0002c192       ?dragLeaveEvent@QWidget@@MAEXPAVQDragLeaveEvent@@@Z 1002d192 f   Qt5Widgets:Qt5Widgets.dll
 0001:0002c198       ?dragMoveEvent@QWidget@@MAEXPAVQDragMoveEvent@@@Z 1002d198 f   Qt5Widgets:Qt5Widgets.dll
 0001:0002c19e       ?dropEvent@QWidget@@MAEXPAVQDropEvent@@@Z 1002d19e f   Qt5Widgets:Qt5Widgets.dll
 0001:0002c1a4       ?enterEvent@QMenu@@MAEXPAVQEvent@@@Z 1002d1a4 f   Qt5Widgets:Qt5Widgets.dll
 0001:0002c1aa       ?enterEvent@QWidget@@MAEXPAVQEvent@@@Z 1002d1aa f   Qt5Widgets:Qt5Widgets.dll
 0001:0002c1b0       ?event@QAction@@MAE_NPAVQEvent@@@Z 1002d1b0 f   Qt5Widgets:Qt5Widgets.dll
 0001:0002c1b6       ?event@QMenu@@MAE_NPAVQEvent@@@Z 1002d1b6 f   Qt5Widgets:Qt5Widgets.dll
 0001:0002c1bc       ?event@QSystemTrayIcon@@MAE_NPAVQEvent@@@Z 1002d1bc f   Qt5Widgets:Qt5Widgets.dll
 0001:0002c1c2       ?event@QWidget@@MAE_NPAVQEvent@@@Z 1002d1c2 f   Qt5Widgets:Qt5Widgets.dll
 0001:0002c1c8       ?focusInEvent@QWidget@@MAEXPAVQFocusEvent@@@Z 1002d1c8 f   Qt5Widgets:Qt5Widgets.dll
 0001:0002c1ce       ?focusNextPrevChild@QMenu@@MAE_N_N@Z 1002d1ce f   Qt5Widgets:Qt5Widgets.dll
 0001:0002c1d4       ?focusNextPrevChild@QWidget@@MAE_N_N@Z 1002d1d4 f   Qt5Widgets:Qt5Widgets.dll
 0001:0002c1da       ?focusOutEvent@QWidget@@MAEXPAVQFocusEvent@@@Z 1002d1da f   Qt5Widgets:Qt5Widgets.dll
 0001:0002c1e0       ?hasHeightForWidth@QWidget@@UBE_NXZ 1002d1e0 f   Qt5Widgets:Qt5Widgets.dll
 0001:0002c1e6       ?heightForWidth@QWidget@@UBEHH@Z 1002d1e6 f   Qt5Widgets:Qt5Widgets.dll
 0001:0002c1ec       ?hideEvent@QMenu@@MAEXPAVQHideEvent@@@Z 1002d1ec f   Qt5Widgets:Qt5Widgets.dll
 0001:0002c1f2       ?hideEvent@QWidget@@MAEXPAVQHideEvent@@@Z 1002d1f2 f   Qt5Widgets:Qt5Widgets.dll
 0001:0002c1f8       ?initPainter@QWidget@@MBEXPAVQPainter@@@Z 1002d1f8 f   Qt5Widgets:Qt5Widgets.dll
 0001:0002c1fe       ?inputMethodEvent@QWidget@@MAEXPAVQInputMethodEvent@@@Z 1002d1fe f   Qt5Widgets:Qt5Widgets.dll
 0001:0002c204       ?inputMethodQuery@QWidget@@UBE?AVQVariant@@W4InputMethodQuery@Qt@@@Z 1002d204 f   Qt5Widgets:Qt5Widgets.dll
 0001:0002c20a       ?keyPressEvent@QMenu@@MAEXPAVQKeyEvent@@@Z 1002d20a f   Qt5Widgets:Qt5Widgets.dll
 0001:0002c210       ?keyPressEvent@QWidget@@MAEXPAVQKeyEvent@@@Z 1002d210 f   Qt5Widgets:Qt5Widgets.dll
 0001:0002c216       ?keyReleaseEvent@QWidget@@MAEXPAVQKeyEvent@@@Z 1002d216 f   Qt5Widgets:Qt5Widgets.dll
 0001:0002c21c       ?leaveEvent@QMenu@@MAEXPAVQEvent@@@Z 1002d21c f   Qt5Widgets:Qt5Widgets.dll
 0001:0002c222       ?leaveEvent@QWidget@@MAEXPAVQEvent@@@Z 1002d222 f   Qt5Widgets:Qt5Widgets.dll
 0001:0002c228       ?metaObject@QAction@@UBEPBUQMetaObject@@XZ 1002d228 f   Qt5Widgets:Qt5Widgets.dll
 0001:0002c22e       ?metaObject@QMenu@@UBEPBUQMetaObject@@XZ 1002d22e f   Qt5Widgets:Qt5Widgets.dll
 0001:0002c234       ?metaObject@QSystemTrayIcon@@UBEPBUQMetaObject@@XZ 1002d234 f   Qt5Widgets:Qt5Widgets.dll
 0001:0002c23a       ?metric@QWidget@@MBEHW4PaintDeviceMetric@QPaintDevice@@@Z 1002d23a f   Qt5Widgets:Qt5Widgets.dll
 0001:0002c240       ?minimumSizeHint@QWidget@@UBE?AVQSize@@XZ 1002d240 f   Qt5Widgets:Qt5Widgets.dll
 0001:0002c246       ?mouseDoubleClickEvent@QWidget@@MAEXPAVQMouseEvent@@@Z 1002d246 f   Qt5Widgets:Qt5Widgets.dll
 0001:0002c24c       ?mouseMoveEvent@QMenu@@MAEXPAVQMouseEvent@@@Z 1002d24c f   Qt5Widgets:Qt5Widgets.dll
 0001:0002c252       ?mouseMoveEvent@QWidget@@MAEXPAVQMouseEvent@@@Z 1002d252 f   Qt5Widgets:Qt5Widgets.dll
 0001:0002c258       ?mousePressEvent@QMenu@@MAEXPAVQMouseEvent@@@Z 1002d258 f   Qt5Widgets:Qt5Widgets.dll
 0001:0002c25e       ?mousePressEvent@QWidget@@MAEXPAVQMouseEvent@@@Z 1002d25e f   Qt5Widgets:Qt5Widgets.dll
 0001:0002c264       ?mouseReleaseEvent@QMenu@@MAEXPAVQMouseEvent@@@Z 1002d264 f   Qt5Widgets:Qt5Widgets.dll
 0001:0002c26a       ?mouseReleaseEvent@QWidget@@MAEXPAVQMouseEvent@@@Z 1002d26a f   Qt5Widgets:Qt5Widgets.dll
 0001:0002c270       ?moveEvent@QWidget@@MAEXPAVQMoveEvent@@@Z 1002d270 f   Qt5Widgets:Qt5Widgets.dll
 0001:0002c276       ?nativeEvent@QWidget@@MAE_NABVQByteArray@@PAXPAJ@Z 1002d276 f   Qt5Widgets:Qt5Widgets.dll
 0001:0002c27c       ?paintEngine@QWidget@@UBEPAVQPaintEngine@@XZ 1002d27c f   Qt5Widgets:Qt5Widgets.dll
 0001:0002c282       ?paintEvent@QMenu@@MAEXPAVQPaintEvent@@@Z 1002d282 f   Qt5Widgets:Qt5Widgets.dll
 0001:0002c288       ?paintEvent@QWidget@@MAEXPAVQPaintEvent@@@Z 1002d288 f   Qt5Widgets:Qt5Widgets.dll
 0001:0002c28e       ?qt_metacall@QAction@@UAEHW4Call@QMetaObject@@HPAPAX@Z 1002d28e f   Qt5Widgets:Qt5Widgets.dll
 0001:0002c294       ?qt_metacall@QMenu@@UAEHW4Call@QMetaObject@@HPAPAX@Z 1002d294 f   Qt5Widgets:Qt5Widgets.dll
 0001:0002c29a       ?qt_metacall@QSystemTrayIcon@@UAEHW4Call@QMetaObject@@HPAPAX@Z 1002d29a f   Qt5Widgets:Qt5Widgets.dll
 0001:0002c2a0       ?qt_metacast@QAction@@UAEPAXPBD@Z 1002d2a0 f   Qt5Widgets:Qt5Widgets.dll
 0001:0002c2a6       ?qt_metacast@QMenu@@UAEPAXPBD@Z 1002d2a6 f   Qt5Widgets:Qt5Widgets.dll
 0001:0002c2ac       ?qt_metacast@QSystemTrayIcon@@UAEPAXPBD@Z 1002d2ac f   Qt5Widgets:Qt5Widgets.dll
 0001:0002c2b2       ?redirected@QWidget@@MBEPAVQPaintDevice@@PAVQPoint@@@Z 1002d2b2 f   Qt5Widgets:Qt5Widgets.dll
 0001:0002c2b8       ?resizeEvent@QWidget@@MAEXPAVQResizeEvent@@@Z 1002d2b8 f   Qt5Widgets:Qt5Widgets.dll
 0001:0002c2be       ?setVisible@QWidget@@UAEX_N@Z 1002d2be f   Qt5Widgets:Qt5Widgets.dll
 0001:0002c2c4       ?sharedPainter@QWidget@@MBEPAVQPainter@@XZ 1002d2c4 f   Qt5Widgets:Qt5Widgets.dll
 0001:0002c2ca       ?showEvent@QWidget@@MAEXPAVQShowEvent@@@Z 1002d2ca f   Qt5Widgets:Qt5Widgets.dll
 0001:0002c2d0       ?sizeHint@QMenu@@UBE?AVQSize@@XZ 1002d2d0 f   Qt5Widgets:Qt5Widgets.dll
 0001:0002c2d6       ?sizeHint@QWidget@@UBE?AVQSize@@XZ 1002d2d6 f   Qt5Widgets:Qt5Widgets.dll
 0001:0002c2dc       ?tabletEvent@QWidget@@MAEXPAVQTabletEvent@@@Z 1002d2dc f   Qt5Widgets:Qt5Widgets.dll
 0001:0002c2e2       ?timerEvent@QMenu@@MAEXPAVQTimerEvent@@@Z 1002d2e2 f   Qt5Widgets:Qt5Widgets.dll
 0001:0002c2e8       ?wheelEvent@QMenu@@MAEXPAVQWheelEvent@@@Z 1002d2e8 f   Qt5Widgets:Qt5Widgets.dll
 0001:0002c2ee       ?wheelEvent@QWidget@@MAEXPAVQWheelEvent@@@Z 1002d2ee f   Qt5Widgets:Qt5Widgets.dll
 0001:0002c2f4       ?winId@QWidget@@QBEIXZ     1002d2f4 f   Qt5Widgets:Qt5Widgets.dll
 0001:0002c2fa       ?setStyleSheet@QWidget@@QAEXABVQString@@@Z 1002d2fa f   Qt5Widgets:Qt5Widgets.dll
 0001:0002c300       ?setWindowIcon@QWidget@@QAEXABVQIcon@@@Z 1002d300 f   Qt5Widgets:Qt5Widgets.dll
 0001:0002c306       ?repaint@QWidget@@QAEXXZ   1002d306 f   Qt5Widgets:Qt5Widgets.dll
 0001:0002c30c       ?setWindowFlags@QWidget@@QAEXV?$QFlags@W4WindowType@Qt@@@@@Z 1002d30c f   Qt5Widgets:Qt5Widgets.dll
 0001:0002c312       ?setAttribute@QWidget@@QAEXW4WidgetAttribute@Qt@@_N@Z 1002d312 f   Qt5Widgets:Qt5Widgets.dll
 0001:0002c318       ?setWindowTitle@QWidget@@QAEXABVQString@@@Z 1002d318 f   Qt5Widgets:Qt5Widgets.dll
 0001:0002c31e       ?show@QWidget@@QAEXXZ      1002d31e f   Qt5Widgets:Qt5Widgets.dll
 0001:0002c324       ??0QApplication@@QAE@AAHPAPADH@Z 1002d324 f   Qt5Widgets:Qt5Widgets.dll
 0001:0002c32a       ??1QApplication@@UAE@XZ    1002d32a f   Qt5Widgets:Qt5Widgets.dll
 0001:0002c330       ?exec@QApplication@@SAHXZ  1002d330 f   Qt5Widgets:Qt5Widgets.dll
 0001:0002c336       ?setGeometry@QWidget@@QAEXABVQRect@@@Z 1002d336 f   Qt5Widgets:Qt5Widgets.dll
 0001:0002c33c       ??0QDesktopWidget@@QAE@XZ  1002d33c f   Qt5Widgets:Qt5Widgets.dll
 0001:0002c342       ??1QDesktopWidget@@UAE@XZ  1002d342 f   Qt5Widgets:Qt5Widgets.dll
 0001:0002c348       ?availableGeometry@QDesktopWidget@@QBE?BVQRect@@H@Z 1002d348 f   Qt5Widgets:Qt5Widgets.dll
 0001:0002c34e       ?minimumWidth@QWidget@@QBEHXZ 1002d34e f   Qt5Widgets:Qt5Widgets.dll
 0001:0002c354       ?minimumHeight@QWidget@@QBEHXZ 1002d354 f   Qt5Widgets:Qt5Widgets.dll
 0001:0002c35a       ?maximumWidth@QWidget@@QBEHXZ 1002d35a f   Qt5Widgets:Qt5Widgets.dll
 0001:0002c360       ?maximumHeight@QWidget@@QBEHXZ 1002d360 f   Qt5Widgets:Qt5Widgets.dll
 0001:0002c366       ?setMinimumSize@QWidget@@QAEXHH@Z 1002d366 f   Qt5Widgets:Qt5Widgets.dll
 0001:0002c36c       ?setMaximumSize@QWidget@@QAEXHH@Z 1002d36c f   Qt5Widgets:Qt5Widgets.dll
 0001:0002c372       ?setMinimumWidth@QWidget@@QAEXH@Z 1002d372 f   Qt5Widgets:Qt5Widgets.dll
 0001:0002c378       ?setMinimumHeight@QWidget@@QAEXH@Z 1002d378 f   Qt5Widgets:Qt5Widgets.dll
 0001:0002c37e       ?setMaximumWidth@QWidget@@QAEXH@Z 1002d37e f   Qt5Widgets:Qt5Widgets.dll
 0001:0002c384       ?setMaximumHeight@QWidget@@QAEXH@Z 1002d384 f   Qt5Widgets:Qt5Widgets.dll
 0001:0002c38a       ?mapToGlobal@QWidget@@QBE?AVQPoint@@ABV2@@Z 1002d38a f   Qt5Widgets:Qt5Widgets.dll
 0001:0002c390       ?setHidden@QWidget@@QAEX_N@Z 1002d390 f   Qt5Widgets:Qt5Widgets.dll
 0001:0002c396       ?hide@QWidget@@QAEXXZ      1002d396 f   Qt5Widgets:Qt5Widgets.dll
 0001:0002c39c       ?showMinimized@QWidget@@QAEXXZ 1002d39c f   Qt5Widgets:Qt5Widgets.dll
 0001:0002c3a2       ?showMaximized@QWidget@@QAEXXZ 1002d3a2 f   Qt5Widgets:Qt5Widgets.dll
 0001:0002c3a8       ?close@QWidget@@QAE_NXZ    1002d3a8 f   Qt5Widgets:Qt5Widgets.dll
 0001:0002c3ae       ?move@QWidget@@QAEXHH@Z    1002d3ae f   Qt5Widgets:Qt5Widgets.dll
 0001:0002c3b4       ?resize@QWidget@@QAEXABVQSize@@@Z 1002d3b4 f   Qt5Widgets:Qt5Widgets.dll
 0001:0002c3ba       ?isMinimized@QWidget@@QBE_NXZ 1002d3ba f   Qt5Widgets:Qt5Widgets.dll
 0001:0002c3c0       ?isMaximized@QWidget@@QBE_NXZ 1002d3c0 f   Qt5Widgets:Qt5Widgets.dll
 0001:0002c3c6       ?isFullScreen@QWidget@@QBE_NXZ 1002d3c6 f   Qt5Widgets:Qt5Widgets.dll
 0001:0002c3cc       ?setSizePolicy@QWidget@@QAEXW4Policy@QSizePolicy@@0@Z 1002d3cc f   Qt5Widgets:Qt5Widgets.dll
 0001:0002c3d2       ?setContentsMargins@QWidget@@QAEXHHHH@Z 1002d3d2 f   Qt5Widgets:Qt5Widgets.dll
 0001:0002c3d8       ??0QBoxLayout@@QAE@W4Direction@0@PAVQWidget@@@Z 1002d3d8 f   Qt5Widgets:Qt5Widgets.dll
 0001:0002c3de       ??1QBoxLayout@@UAE@XZ      1002d3de f   Qt5Widgets:Qt5Widgets.dll
 0001:0002c3e4       ?addWidget@QBoxLayout@@QAEXPAVQWidget@@HV?$QFlags@W4AlignmentFlag@Qt@@@@@Z 1002d3e4 f   Qt5Widgets:Qt5Widgets.dll
 0001:0002c3ea       ??0QLabel@@QAE@PAVQWidget@@V?$QFlags@W4WindowType@Qt@@@@@Z 1002d3ea f   Qt5Widgets:Qt5Widgets.dll
 0001:0002c3f0       ??1QLabel@@UAE@XZ          1002d3f0 f   Qt5Widgets:Qt5Widgets.dll
 0001:0002c3f6       ?setAlignment@QLabel@@QAEXV?$QFlags@W4AlignmentFlag@Qt@@@@@Z 1002d3f6 f   Qt5Widgets:Qt5Widgets.dll
 0001:0002c3fc       ?setScaledContents@QLabel@@QAEX_N@Z 1002d3fc f   Qt5Widgets:Qt5Widgets.dll
 0001:0002c402       ?setMovie@QLabel@@QAEXPAVQMovie@@@Z 1002d402 f   Qt5Widgets:Qt5Widgets.dll
 0001:0002c408       ?accept@QDialog@@UAEXXZ    1002d408 f   Qt5Widgets:Qt5Widgets.dll
 0001:0002c40e       ?addItem@QBoxLayout@@UAEXPAVQLayoutItem@@@Z 1002d40e f   Qt5Widgets:Qt5Widgets.dll
 0001:0002c414       ?changeEvent@QLabel@@MAEXPAVQEvent@@@Z 1002d414 f   Qt5Widgets:Qt5Widgets.dll
 0001:0002c41a       ?childEvent@QLayout@@MAEXPAVQChildEvent@@@Z 1002d41a f   Qt5Widgets:Qt5Widgets.dll
 0001:0002c420       ?closeEvent@QDialog@@MAEXPAVQCloseEvent@@@Z 1002d420 f   Qt5Widgets:Qt5Widgets.dll
 0001:0002c426       ?contextMenuEvent@QDialog@@MAEXPAVQContextMenuEvent@@@Z 1002d426 f   Qt5Widgets:Qt5Widgets.dll
 0001:0002c42c       ?contextMenuEvent@QLabel@@MAEXPAVQContextMenuEvent@@@Z 1002d42c f   Qt5Widgets:Qt5Widgets.dll
 0001:0002c432       ?controlTypes@QLayout@@UBE?AV?$QFlags@W4ControlType@QSizePolicy@@@@XZ 1002d432 f   Qt5Widgets:Qt5Widgets.dll
 0001:0002c438       ?count@QBoxLayout@@UBEHXZ  1002d438 f   Qt5Widgets:Qt5Widgets.dll
 0001:0002c43e       ?event@QLabel@@MAE_NPAVQEvent@@@Z 1002d43e f   Qt5Widgets:Qt5Widgets.dll
 0001:0002c444       ?eventFilter@QDialog@@MAE_NPAVQObject@@PAVQEvent@@@Z 1002d444 f   Qt5Widgets:Qt5Widgets.dll
 0001:0002c44a       ?exec@QDialog@@UAEHXZ      1002d44a f   Qt5Widgets:Qt5Widgets.dll
 0001:0002c450       ?expandingDirections@QBoxLayout@@UBE?AV?$QFlags@W4Orientation@Qt@@@@XZ 1002d450 f   Qt5Widgets:Qt5Widgets.dll
 0001:0002c456       ?focusInEvent@QLabel@@MAEXPAVQFocusEvent@@@Z 1002d456 f   Qt5Widgets:Qt5Widgets.dll
 0001:0002c45c       ?focusNextPrevChild@QLabel@@MAE_N_N@Z 1002d45c f   Qt5Widgets:Qt5Widgets.dll
 0001:0002c462       ?focusOutEvent@QLabel@@MAEXPAVQFocusEvent@@@Z 1002d462 f   Qt5Widgets:Qt5Widgets.dll
 0001:0002c468       ?geometry@QLayout@@UBE?AVQRect@@XZ 1002d468 f   Qt5Widgets:Qt5Widgets.dll
 0001:0002c46e       ?hasHeightForWidth@QBoxLayout@@UBE_NXZ 1002d46e f   Qt5Widgets:Qt5Widgets.dll
 0001:0002c474       ?heightForWidth@QBoxLayout@@UBEHH@Z 1002d474 f   Qt5Widgets:Qt5Widgets.dll
 0001:0002c47a       ?heightForWidth@QLabel@@UBEHH@Z 1002d47a f   Qt5Widgets:Qt5Widgets.dll
 0001:0002c480       ?indexOf@QLayout@@UBEHPAVQWidget@@@Z 1002d480 f   Qt5Widgets:Qt5Widgets.dll
 0001:0002c486       ?invalidate@QBoxLayout@@UAEXXZ 1002d486 f   Qt5Widgets:Qt5Widgets.dll
 0001:0002c48c       ?isEmpty@QLayout@@UBE_NXZ  1002d48c f   Qt5Widgets:Qt5Widgets.dll
 0001:0002c492       ?itemAt@QBoxLayout@@UBEPAVQLayoutItem@@H@Z 1002d492 f   Qt5Widgets:Qt5Widgets.dll
 0001:0002c498       ?keyPressEvent@QDialog@@MAEXPAVQKeyEvent@@@Z 1002d498 f   Qt5Widgets:Qt5Widgets.dll
 0001:0002c49e       ?keyPressEvent@QLabel@@MAEXPAVQKeyEvent@@@Z 1002d49e f   Qt5Widgets:Qt5Widgets.dll
 0001:0002c4a4       ?layout@QLayout@@UAEPAV1@XZ 1002d4a4 f   Qt5Widgets:Qt5Widgets.dll
 0001:0002c4aa       ?maximumSize@QBoxLayout@@UBE?AVQSize@@XZ 1002d4aa f   Qt5Widgets:Qt5Widgets.dll
 0001:0002c4b0       ?metaObject@QBoxLayout@@UBEPBUQMetaObject@@XZ 1002d4b0 f   Qt5Widgets:Qt5Widgets.dll
 0001:0002c4b6       ?metaObject@QLabel@@UBEPBUQMetaObject@@XZ 1002d4b6 f   Qt5Widgets:Qt5Widgets.dll
 0001:0002c4bc       ?minimumHeightForWidth@QBoxLayout@@UBEHH@Z 1002d4bc f   Qt5Widgets:Qt5Widgets.dll
 0001:0002c4c2       ?minimumSize@QBoxLayout@@UBE?AVQSize@@XZ 1002d4c2 f   Qt5Widgets:Qt5Widgets.dll
 0001:0002c4c8       ?minimumSizeHint@QDialog@@UBE?AVQSize@@XZ 1002d4c8 f   Qt5Widgets:Qt5Widgets.dll
 0001:0002c4ce       ?minimumSizeHint@QLabel@@UBE?AVQSize@@XZ 1002d4ce f   Qt5Widgets:Qt5Widgets.dll
 0001:0002c4d4       ?mouseMoveEvent@QLabel@@MAEXPAVQMouseEvent@@@Z 1002d4d4 f   Qt5Widgets:Qt5Widgets.dll
 0001:0002c4da       ?mousePressEvent@QLabel@@MAEXPAVQMouseEvent@@@Z 1002d4da f   Qt5Widgets:Qt5Widgets.dll
 0001:0002c4e0       ?mouseReleaseEvent@QLabel@@MAEXPAVQMouseEvent@@@Z 1002d4e0 f   Qt5Widgets:Qt5Widgets.dll
 0001:0002c4e6       ?open@QDialog@@UAEXXZ      1002d4e6 f   Qt5Widgets:Qt5Widgets.dll
 0001:0002c4ec       ?paintEvent@QLabel@@MAEXPAVQPaintEvent@@@Z 1002d4ec f   Qt5Widgets:Qt5Widgets.dll
 0001:0002c4f2       ?qt_metacall@QBoxLayout@@UAEHW4Call@QMetaObject@@HPAPAX@Z 1002d4f2 f   Qt5Widgets:Qt5Widgets.dll
 0001:0002c4f8       ?qt_metacall@QLabel@@UAEHW4Call@QMetaObject@@HPAPAX@Z 1002d4f8 f   Qt5Widgets:Qt5Widgets.dll
 0001:0002c4fe       ?qt_metacast@QBoxLayout@@UAEPAXPBD@Z 1002d4fe f   Qt5Widgets:Qt5Widgets.dll
 0001:0002c504       ?qt_metacast@QLabel@@UAEPAXPBD@Z 1002d504 f   Qt5Widgets:Qt5Widgets.dll
 0001:0002c50a       ?reject@QDialog@@UAEXXZ    1002d50a f   Qt5Widgets:Qt5Widgets.dll
 0001:0002c510       ?resizeEvent@QDialog@@MAEXPAVQResizeEvent@@@Z 1002d510 f   Qt5Widgets:Qt5Widgets.dll
 0001:0002c516       ?setGeometry@QBoxLayout@@UAEXABVQRect@@@Z 1002d516 f   Qt5Widgets:Qt5Widgets.dll
 0001:0002c51c       ?showEvent@QDialog@@MAEXPAVQShowEvent@@@Z 1002d51c f   Qt5Widgets:Qt5Widgets.dll
 0001:0002c522       ?sizeHint@QBoxLayout@@UBE?AVQSize@@XZ 1002d522 f   Qt5Widgets:Qt5Widgets.dll
 0001:0002c528       ?sizeHint@QDialog@@UBE?AVQSize@@XZ 1002d528 f   Qt5Widgets:Qt5Widgets.dll
 0001:0002c52e       ?sizeHint@QLabel@@UBE?AVQSize@@XZ 1002d52e f   Qt5Widgets:Qt5Widgets.dll
 0001:0002c534       ?spacerItem@QLayoutItem@@UAEPAVQSpacerItem@@XZ 1002d534 f   Qt5Widgets:Qt5Widgets.dll
 0001:0002c53a       ?takeAt@QBoxLayout@@UAEPAVQLayoutItem@@H@Z 1002d53a f   Qt5Widgets:Qt5Widgets.dll
 0001:0002c540       ?widget@QLayoutItem@@UAEPAVQWidget@@XZ 1002d540 f   Qt5Widgets:Qt5Widgets.dll
 0001:0002c546       ??0QNetworkRequest@@QAE@ABVQUrl@@@Z 1002d546 f   Qt5Network:Qt5Network.dll
 0001:0002c54c       ??0QNetworkRequest@@QAE@ABV0@@Z 1002d54c f   Qt5Network:Qt5Network.dll
 0001:0002c552       ??1QNetworkRequest@@QAE@XZ 1002d552 f   Qt5Network:Qt5Network.dll
 0001:0002c558       ?qt_metacast@QNetworkCookieJar@@UAEPAXPBD@Z 1002d558 f   Qt5Network:Qt5Network.dll
 0001:0002c55e       ?qt_metacall@QNetworkCookieJar@@UAEHW4Call@QMetaObject@@HPAPAX@Z 1002d55e f   Qt5Network:Qt5Network.dll
 0001:0002c564       ?url@QNetworkRequest@@QBE?AVQUrl@@XZ 1002d564 f   Qt5Network:Qt5Network.dll
 0001:0002c56a       ??0QNetworkAccessManager@@QAE@PAVQObject@@@Z 1002d56a f   Qt5Network:Qt5Network.dll
 0001:0002c570       ??1QNetworkAccessManager@@UAE@XZ 1002d570 f   Qt5Network:Qt5Network.dll
 0001:0002c576       ?setCache@QNetworkAccessManager@@QAEXPAVQAbstractNetworkCache@@@Z 1002d576 f   Qt5Network:Qt5Network.dll
 0001:0002c57c       ?setCookieJar@QNetworkAccessManager@@QAEXPAVQNetworkCookieJar@@@Z 1002d57c f   Qt5Network:Qt5Network.dll
 0001:0002c582       ?get@QNetworkAccessManager@@QAEPAVQNetworkReply@@ABVQNetworkRequest@@@Z 1002d582 f   Qt5Network:Qt5Network.dll
 0001:0002c588       ?setNetworkAccessible@QNetworkAccessManager@@QAEXW4NetworkAccessibility@1@@Z 1002d588 f   Qt5Network:Qt5Network.dll
 0001:0002c58e       ??0QNetworkDiskCache@@QAE@PAVQObject@@@Z 1002d58e f   Qt5Network:Qt5Network.dll
 0001:0002c594       ??1QNetworkDiskCache@@UAE@XZ 1002d594 f   Qt5Network:Qt5Network.dll
 0001:0002c59a       ?setCacheDirectory@QNetworkDiskCache@@QAEXABVQString@@@Z 1002d59a f   Qt5Network:Qt5Network.dll
 0001:0002c5a0       ?setMaximumCacheSize@QNetworkDiskCache@@QAEX_J@Z 1002d5a0 f   Qt5Network:Qt5Network.dll
 0001:0002c5a6       ?url@QNetworkReply@@QBE?AVQUrl@@XZ 1002d5a6 f   Qt5Network:Qt5Network.dll
 0001:0002c5ac       ?header@QNetworkReply@@QBE?AVQVariant@@W4KnownHeaders@QNetworkRequest@@@Z 1002d5ac f   Qt5Network:Qt5Network.dll
 0001:0002c5b2       ?rawHeaderList@QNetworkReply@@QBE?AV?$QList@VQByteArray@@@@XZ 1002d5b2 f   Qt5Network:Qt5Network.dll
 0001:0002c5b8       ?rawHeader@QNetworkReply@@QBE?AVQByteArray@@ABV2@@Z 1002d5b8 f   Qt5Network:Qt5Network.dll
 0001:0002c5be       ?attribute@QNetworkReply@@QBE?AVQVariant@@W4Attribute@QNetworkRequest@@@Z 1002d5be f   Qt5Network:Qt5Network.dll
 0001:0002c5c4       ?cacheSize@QNetworkDiskCache@@UBE_JXZ 1002d5c4 f   Qt5Network:Qt5Network.dll
 0001:0002c5ca       ?clear@QNetworkDiskCache@@UAEXXZ 1002d5ca f   Qt5Network:Qt5Network.dll
 0001:0002c5d0       ?createRequest@QNetworkAccessManager@@MAEPAVQNetworkReply@@W4Operation@1@ABVQNetworkRequest@@PAVQIODevice@@@Z 1002d5d0 f   Qt5Network:Qt5Network.dll
 0001:0002c5d6       ?data@QNetworkDiskCache@@UAEPAVQIODevice@@ABVQUrl@@@Z 1002d5d6 f   Qt5Network:Qt5Network.dll
 0001:0002c5dc       ?expire@QNetworkDiskCache@@MAE_JXZ 1002d5dc f   Qt5Network:Qt5Network.dll
 0001:0002c5e2       ?insert@QNetworkDiskCache@@UAEXPAVQIODevice@@@Z 1002d5e2 f   Qt5Network:Qt5Network.dll
 0001:0002c5e8       ?metaData@QNetworkDiskCache@@UAE?AVQNetworkCacheMetaData@@ABVQUrl@@@Z 1002d5e8 f   Qt5Network:Qt5Network.dll
 0001:0002c5ee       ?metaObject@QNetworkAccessManager@@UBEPBUQMetaObject@@XZ 1002d5ee f   Qt5Network:Qt5Network.dll
 0001:0002c5f4       ?metaObject@QNetworkDiskCache@@UBEPBUQMetaObject@@XZ 1002d5f4 f   Qt5Network:Qt5Network.dll
 0001:0002c5fa       ?prepare@QNetworkDiskCache@@UAEPAVQIODevice@@ABVQNetworkCacheMetaData@@@Z 1002d5fa f   Qt5Network:Qt5Network.dll
 0001:0002c600       ?qt_metacall@QNetworkAccessManager@@UAEHW4Call@QMetaObject@@HPAPAX@Z 1002d600 f   Qt5Network:Qt5Network.dll
 0001:0002c606       ?qt_metacall@QNetworkDiskCache@@UAEHW4Call@QMetaObject@@HPAPAX@Z 1002d606 f   Qt5Network:Qt5Network.dll
 0001:0002c60c       ?qt_metacast@QNetworkAccessManager@@UAEPAXPBD@Z 1002d60c f   Qt5Network:Qt5Network.dll
 0001:0002c612       ?qt_metacast@QNetworkDiskCache@@UAEPAXPBD@Z 1002d612 f   Qt5Network:Qt5Network.dll
 0001:0002c618       ?remove@QNetworkDiskCache@@UAE_NABVQUrl@@@Z 1002d618 f   Qt5Network:Qt5Network.dll
 0001:0002c61e       ?updateMetaData@QNetworkDiskCache@@UAEXABVQNetworkCacheMetaData@@@Z 1002d61e f   Qt5Network:Qt5Network.dll
 0001:0002c624       ??0QNetworkCookie@@QAE@ABV0@@Z 1002d624 f   Qt5Network:Qt5Network.dll
 0001:0002c62a       ??1QNetworkCookie@@QAE@XZ  1002d62a f   Qt5Network:Qt5Network.dll
 0001:0002c630       ?toRawForm@QNetworkCookie@@QBE?AVQByteArray@@W4RawForm@1@@Z 1002d630 f   Qt5Network:Qt5Network.dll
 0001:0002c636       ?parseCookies@QNetworkCookie@@SA?AV?$QList@VQNetworkCookie@@@@ABVQByteArray@@@Z 1002d636 f   Qt5Network:Qt5Network.dll
 0001:0002c63c       ??0QNetworkCookieJar@@QAE@PAVQObject@@@Z 1002d63c f   Qt5Network:Qt5Network.dll
 0001:0002c642       ??1QNetworkCookieJar@@UAE@XZ 1002d642 f   Qt5Network:Qt5Network.dll
 0001:0002c648       ?cookiesForUrl@QNetworkCookieJar@@UBE?AV?$QList@VQNetworkCookie@@@@ABVQUrl@@@Z 1002d648 f   Qt5Network:Qt5Network.dll
 0001:0002c64e       ?setCookiesFromUrl@QNetworkCookieJar@@UAE_NABV?$QList@VQNetworkCookie@@@@ABVQUrl@@@Z 1002d64e f   Qt5Network:Qt5Network.dll
 0001:0002c654       ?allCookies@QNetworkCookieJar@@IBE?AV?$QList@VQNetworkCookie@@@@XZ 1002d654 f   Qt5Network:Qt5Network.dll
 0001:0002c65a       ?setAllCookies@QNetworkCookieJar@@IAEXABV?$QList@VQNetworkCookie@@@@@Z 1002d65a f   Qt5Network:Qt5Network.dll
 0001:0002c660       ?deleteCookie@QNetworkCookieJar@@UAE_NABVQNetworkCookie@@@Z 1002d660 f   Qt5Network:Qt5Network.dll
 0001:0002c666       ?insertCookie@QNetworkCookieJar@@UAE_NABVQNetworkCookie@@@Z 1002d666 f   Qt5Network:Qt5Network.dll
 0001:0002c66c       ?updateCookie@QNetworkCookieJar@@UAE_NABVQNetworkCookie@@@Z 1002d66c f   Qt5Network:Qt5Network.dll
 0001:0002c672       ?validateCookie@QNetworkCookieJar@@MBE_NABVQNetworkCookie@@ABVQUrl@@@Z 1002d672 f   Qt5Network:Qt5Network.dll
 0001:0002c678       ?error@QNetworkReply@@QBE?AW4NetworkError@1@XZ 1002d678 f   Qt5Network:Qt5Network.dll
 0001:0002c67e       ?setUrl@QNetworkRequest@@QAEXABVQUrl@@@Z 1002d67e f   Qt5Network:Qt5Network.dll
 0001:0002c684       ?setHeader@QNetworkRequest@@QAEXW4KnownHeaders@1@ABVQVariant@@@Z 1002d684 f   Qt5Network:Qt5Network.dll
 0001:0002c68a       ?post@QNetworkAccessManager@@QAEPAVQNetworkReply@@ABVQNetworkRequest@@ABVQByteArray@@@Z 1002d68a f   Qt5Network:Qt5Network.dll
 0001:0002c690       ?tr@QMetaObject@@QBE?AVQString@@PBD0H@Z 1002d690 f   Qt5Core:Qt5Core.dll
 0001:0002c696       ??0QString@@QAE@PBD@Z      1002d696 f   Qt5Core:Qt5Core.dll
 0001:0002c69c       ?dynamicMetaObject@QObjectData@@QBEPAUQMetaObject@@XZ 1002d69c f   Qt5Core:Qt5Core.dll
 0001:0002c6a2       ??0QObject@@QAE@PAV0@@Z    1002d6a2 f   Qt5Core:Qt5Core.dll
 0001:0002c6a8       ??1QVariant@@QAE@XZ        1002d6a8 f   Qt5Core:Qt5Core.dll
 0001:0002c6ae       ??0QVariant@@QAE@ABV0@@Z   1002d6ae f   Qt5Core:Qt5Core.dll
 0001:0002c6b4       ??4QVariant@@QAEAAV0@ABV0@@Z 1002d6b4 f   Qt5Core:Qt5Core.dll
 0001:0002c6ba       ??4QVariant@@QAEAAV0@$$QAV0@@Z 1002d6ba f   Qt5Core:Qt5Core.dll
 0001:0002c6c0       ?childEvent@QObject@@MAEXPAVQChildEvent@@@Z 1002d6c0 f   Qt5Core:Qt5Core.dll
 0001:0002c6c6       ?connectNotify@QObject@@MAEXABVQMetaMethod@@@Z 1002d6c6 f   Qt5Core:Qt5Core.dll
 0001:0002c6cc       ?customEvent@QObject@@MAEXPAVQEvent@@@Z 1002d6cc f   Qt5Core:Qt5Core.dll
 0001:0002c6d2       ?disconnectNotify@QObject@@MAEXABVQMetaMethod@@@Z 1002d6d2 f   Qt5Core:Qt5Core.dll
 0001:0002c6d8       ?event@QObject@@UAE_NPAVQEvent@@@Z 1002d6d8 f   Qt5Core:Qt5Core.dll
 0001:0002c6de       ?eventFilter@QObject@@UAE_NPAV1@PAVQEvent@@@Z 1002d6de f   Qt5Core:Qt5Core.dll
 0001:0002c6e4       ?timerEvent@QObject@@MAEXPAVQTimerEvent@@@Z 1002d6e4 f   Qt5Core:Qt5Core.dll
 0001:0002c6ea       ?qt_metacast@QObject@@UAEPAXPBD@Z 1002d6ea f   Qt5Core:Qt5Core.dll
 0001:0002c6f0       ?qt_metacall@QObject@@UAEHW4Call@QMetaObject@@HPAPAX@Z 1002d6f0 f   Qt5Core:Qt5Core.dll
 0001:0002c6f6       ?normalizedType@QMetaObject@@SA?AVQByteArray@@PBD@Z 1002d6f6 f   Qt5Core:Qt5Core.dll
 0001:0002c6fc       ??1QByteArray@@QAE@XZ      1002d6fc f   Qt5Core:Qt5Core.dll
 0001:0002c702       ??0QString@@QAE@ABV0@@Z    1002d702 f   Qt5Core:Qt5Core.dll
 0001:0002c708       ?registerNormalizedType@QMetaType@@SAHABVQByteArray@@P6AXPAX@ZP6APAXPBX@Z2P6APAX13@ZHV?$QFlags@W4TypeFlag@QMetaType@@@@PBUQMetaObject@@@Z 1002d708 f   Qt5Core:Qt5Core.dll
 0001:0002c70e       ?registerNormalizedTypedef@QMetaType@@SAHABVQByteArray@@H@Z 1002d70e f   Qt5Core:Qt5Core.dll
 0001:0002c714       ??0QUrl@@QAE@XZ            1002d714 f   Qt5Core:Qt5Core.dll
 0001:0002c71a       ??1QUrl@@QAE@XZ            1002d71a f   Qt5Core:Qt5Core.dll
 0001:0002c720       ?className@QMetaObject@@QBEPBDXZ 1002d720 f   Qt5Core:Qt5Core.dll
 0001:0002c726       ??0QByteArray@@QAE@XZ      1002d726 f   Qt5Core:Qt5Core.dll
 0001:0002c72c       ?reserve@QByteArray@@QAEXH@Z 1002d72c f   Qt5Core:Qt5Core.dll
 0001:0002c732       ?append@QByteArray@@QAEAAV1@D@Z 1002d732 f   Qt5Core:Qt5Core.dll
 0001:0002c738       ?append@QByteArray@@QAEAAV1@PBD@Z 1002d738 f   Qt5Core:Qt5Core.dll
 0001:0002c73e       ??1QString@@QAE@XZ         1002d73e f   Qt5Core:Qt5Core.dll
 0001:0002c744       ??0QVariant@@QAE@H@Z       1002d744 f   Qt5Core:Qt5Core.dll
 0001:0002c74a       ??4QString@@QAEAAV0@ABV0@@Z 1002d74a f   Qt5Core:Qt5Core.dll
 0001:0002c750       ??0QMessageLogger@@QAE@PBDH0@Z 1002d750 f   Qt5Core:Qt5Core.dll
 0001:0002c756       ?debug@QMessageLogger@@QBE?AVQDebug@@XZ 1002d756 f   Qt5Core:Qt5Core.dll
 0001:0002c75c       ??1Connection@QMetaObject@@QAE@XZ 1002d75c f   Qt5Core:Qt5Core.dll
 0001:0002c762       ??0QChar@@QAE@UQLatin1Char@@@Z 1002d762 f   Qt5Core:Qt5Core.dll
 0001:0002c768       ??0QByteArray@@QAE@PBDH@Z  1002d768 f   Qt5Core:Qt5Core.dll
 0001:0002c76e       ??0QString@@QAE@VQLatin1String@@@Z 1002d76e f   Qt5Core:Qt5Core.dll
 0001:0002c774       ??0QString@@QAE@$$QAV0@@Z  1002d774 f   Qt5Core:Qt5Core.dll
 0001:0002c77a       ??4QString@@QAEAAV0@$$QAV0@@Z 1002d77a f   Qt5Core:Qt5Core.dll
 0001:0002c780       ?isEmpty@QString@@QBE_NXZ  1002d780 f   Qt5Core:Qt5Core.dll
 0001:0002c786       ?arg@QString@@QBE?AV1@ABV1@HVQChar@@@Z 1002d786 f   Qt5Core:Qt5Core.dll
 0001:0002c78c       ?lastIndexOf@QString@@QBEHABV1@HW4CaseSensitivity@Qt@@@Z 1002d78c f   Qt5Core:Qt5Core.dll
 0001:0002c792       ?contains@QString@@QBE_NVQChar@@W4CaseSensitivity@Qt@@@Z 1002d792 f   Qt5Core:Qt5Core.dll
 0001:0002c798       ?right@QString@@QBE?AV1@H@Z 1002d798 f   Qt5Core:Qt5Core.dll
 0001:0002c79e       ?prepend@QString@@QAEAAV1@VQChar@@@Z 1002d79e f   Qt5Core:Qt5Core.dll
 0001:0002c7a4       ??YQString@@QAEAAV0@ABV0@@Z 1002d7a4 f   Qt5Core:Qt5Core.dll
 0001:0002c7aa       ?remove@QString@@QAEAAV1@ABV1@W4CaseSensitivity@Qt@@@Z 1002d7aa f   Qt5Core:Qt5Core.dll
 0001:0002c7b0       ?fromUtf8@QString@@SA?AV1@PBDH@Z 1002d7b0 f   Qt5Core:Qt5Core.dll
 0001:0002c7b6       ?fromLocal8Bit@QString@@SA?AV1@PBDH@Z 1002d7b6 f   Qt5Core:Qt5Core.dll
 0001:0002c7bc       ??0QString@@QAE@ABVQByteArray@@@Z 1002d7bc f   Qt5Core:Qt5Core.dll
 0001:0002c7c2       ??8QString@@QBE_NPBD@Z     1002d7c2 f   Qt5Core:Qt5Core.dll
 0001:0002c7c8       ?toStdString@QString@@QBE?AV?$basic_string@DU?$char_traits@D@std@@V?$allocator@D@2@@std@@XZ 1002d7c8 f   Qt5Core:Qt5Core.dll
 0001:0002c7ce       ?detach_grow@QListData@@QAEPAUData@1@PAHH@Z 1002d7ce f   Qt5Core:Qt5Core.dll
 0001:0002c7d4       ?dispose@QListData@@QAEXXZ 1002d7d4 f   Qt5Core:Qt5Core.dll
 0001:0002c7da       ?dispose@QListData@@SAXPAUData@1@@Z 1002d7da f   Qt5Core:Qt5Core.dll
 0001:0002c7e0       ?append@QListData@@QAEPAPAXXZ 1002d7e0 f   Qt5Core:Qt5Core.dll
 0001:0002c7e6       ?begin@QListData@@QBEPAPAXXZ 1002d7e6 f   Qt5Core:Qt5Core.dll
 0001:0002c7ec       ?end@QListData@@QBEPAPAXXZ 1002d7ec f   Qt5Core:Qt5Core.dll
 0001:0002c7f2       ??1QObject@@UAE@XZ         1002d7f2 f   Qt5Core:Qt5Core.dll
 0001:0002c7f8       ?setParent@QObject@@QAEXPAV1@@Z 1002d7f8 f   Qt5Core:Qt5Core.dll
 0001:0002c7fe       ?connect@QObject@@SA?AVConnection@QMetaObject@@PBV1@PBD01W4ConnectionType@Qt@@@Z 1002d7fe f   Qt5Core:Qt5Core.dll
 0001:0002c804       ?setProperty@QObject@@QAE_NPBDABVQVariant@@@Z 1002d804 f   Qt5Core:Qt5Core.dll
 0001:0002c80a       ?deleteLater@QObject@@QAEXXZ 1002d80a f   Qt5Core:Qt5Core.dll
 0001:0002c810       ?isOpen@QIODevice@@QBE_NXZ 1002d810 f   Qt5Core:Qt5Core.dll
 0001:0002c816       ?readAll@QIODevice@@QAE?AVQByteArray@@XZ 1002d816 f   Qt5Core:Qt5Core.dll
 0001:0002c81c       ?write@QIODevice@@QAE_JABVQByteArray@@@Z 1002d81c f   Qt5Core:Qt5Core.dll
 0001:0002c822       ?errorString@QIODevice@@QBE?AVQString@@XZ 1002d822 f   Qt5Core:Qt5Core.dll
 0001:0002c828       ??0QVariant@@QAE@PBD@Z     1002d828 f   Qt5Core:Qt5Core.dll
 0001:0002c82e       ??0QVariant@@QAE@ABVQString@@@Z 1002d82e f   Qt5Core:Qt5Core.dll
 0001:0002c834       ?toInt@QVariant@@QBEHPA_N@Z 1002d834 f   Qt5Core:Qt5Core.dll
 0001:0002c83a       ?toUrl@QVariant@@QBE?AVQUrl@@XZ 1002d83a f   Qt5Core:Qt5Core.dll
 0001:0002c840       ??1QDebug@@QAE@XZ          1002d840 f   Qt5Core:Qt5Core.dll
 0001:0002c846       ??6QDebug@@QAEAAV0@PBD@Z   1002d846 f   Qt5Core:Qt5Core.dll
 0001:0002c84c       ??0QFile@@QAE@XZ           1002d84c f   Qt5Core:Qt5Core.dll
 0001:0002c852       ??1QFile@@UAE@XZ           1002d852 f   Qt5Core:Qt5Core.dll
 0001:0002c858       ?setFileName@QFile@@QAEXABVQString@@@Z 1002d858 f   Qt5Core:Qt5Core.dll
 0001:0002c85e       ??0QFileInfo@@QAE@ABVQString@@@Z 1002d85e f   Qt5Core:Qt5Core.dll
 0001:0002c864       ??1QFileInfo@@QAE@XZ       1002d864 f   Qt5Core:Qt5Core.dll
 0001:0002c86a       ?completeBaseName@QFileInfo@@QBE?AVQString@@XZ 1002d86a f   Qt5Core:Qt5Core.dll
 0001:0002c870       ?suffix@QFileInfo@@QBE?AVQString@@XZ 1002d870 f   Qt5Core:Qt5Core.dll
 0001:0002c876       ?writableLocation@QStandardPaths@@SA?AVQString@@W4StandardLocation@1@@Z 1002d876 f   Qt5Core:Qt5Core.dll
 0001:0002c87c       ??0QUrl@@QAE@ABV0@@Z       1002d87c f   Qt5Core:Qt5Core.dll
 0001:0002c882       ??0QUrl@@QAE@ABVQString@@W4ParsingMode@0@@Z 1002d882 f   Qt5Core:Qt5Core.dll
 0001:0002c888       ?toString@QUrl@@QBE?AVQString@@V?$QUrlTwoFlags@W4UrlFormattingOption@QUrl@@W4ComponentFormattingOption@2@@@@Z 1002d888 f   Qt5Core:Qt5Core.dll
 0001:0002c88e       ?isValid@QUrl@@QBE_NXZ     1002d88e f   Qt5Core:Qt5Core.dll
 0001:0002c894       ?isEmpty@QUrl@@QBE_NXZ     1002d894 f   Qt5Core:Qt5Core.dll
 0001:0002c89a       ?scheme@QUrl@@QBE?AVQString@@XZ 1002d89a f   Qt5Core:Qt5Core.dll
 0001:0002c8a0       ?path@QUrl@@QBE?AVQString@@V?$QFlags@W4ComponentFormattingOption@QUrl@@@@@Z 1002d8a0 f   Qt5Core:Qt5Core.dll
 0001:0002c8a6       ?applicationDirPath@QCoreApplication@@SA?AVQString@@XZ 1002d8a6 f   Qt5Core:Qt5Core.dll
 0001:0002c8ac       ??0QString@@QAE@XZ         1002d8ac f   Qt5Core:Qt5Core.dll
 0001:0002c8b2       ??M@YA_NABVQString@@0@Z    1002d8b2 f   Qt5Core:Qt5Core.dll
 0001:0002c8b8       ?setObjectName@QObject@@QAEXABVQString@@@Z 1002d8b8 f   Qt5Core:Qt5Core.dll
 0001:0002c8be       ?color@QMapNodeBase@@QBE?AW4Color@1@XZ 1002d8be f   Qt5Core:Qt5Core.dll
 0001:0002c8c4       ?setColor@QMapNodeBase@@QAEXW4Color@1@@Z 1002d8c4 f   Qt5Core:Qt5Core.dll
 0001:0002c8ca       ?setParent@QMapNodeBase@@QAEXPAU1@@Z 1002d8ca f   Qt5Core:Qt5Core.dll
 0001:0002c8d0       ?freeNodeAndRebalance@QMapDataBase@@QAEXPAUQMapNodeBase@@@Z 1002d8d0 f   Qt5Core:Qt5Core.dll
 0001:0002c8d6       ?recalcMostLeftNode@QMapDataBase@@QAEXXZ 1002d8d6 f   Qt5Core:Qt5Core.dll
 0001:0002c8dc       ?createNode@QMapDataBase@@QAEPAUQMapNodeBase@@HHPAU2@_N@Z 1002d8dc f   Qt5Core:Qt5Core.dll
 0001:0002c8e2       ?freeTree@QMapDataBase@@QAEXPAUQMapNodeBase@@H@Z 1002d8e2 f   Qt5Core:Qt5Core.dll
 0001:0002c8e8       ?createData@QMapDataBase@@SAPAU1@XZ 1002d8e8 f   Qt5Core:Qt5Core.dll
 0001:0002c8ee       ?freeData@QMapDataBase@@SAXPAU1@@Z 1002d8ee f   Qt5Core:Qt5Core.dll
 0001:0002c8f4       ?getAndRef@ExternalRefCountData@QtSharedPointer@@SAPAU12@PBVQObject@@@Z 1002d8f4 f   Qt5Core:Qt5Core.dll
 0001:0002c8fa       ?debug@QMessageLogger@@QBAXPBDZZ 1002d8fa f   Qt5Core:Qt5Core.dll
 0001:0002c900       ?data@QArrayData@@QAEPAXXZ 1002d900 f   Qt5Core:Qt5Core.dll
 0001:0002c906       ?deallocate@QArrayData@@SAXPAU1@II@Z 1002d906 f   Qt5Core:Qt5Core.dll
 0001:0002c90c       ?sharedNull@QArrayData@@SAPAU1@XZ 1002d90c f   Qt5Core:Qt5Core.dll
 0001:0002c912       ??4QString@@QAEAAV0@PBD@Z  1002d912 f   Qt5Core:Qt5Core.dll
 0001:0002c918       ??6QDebug@@QAEAAV0@H@Z     1002d918 f   Qt5Core:Qt5Core.dll
 0001:0002c91e       ??0QChar@@QAE@H@Z          1002d91e f   Qt5Core:Qt5Core.dll
 0001:0002c924       ?indexOf@QString@@QBEHVQChar@@HW4CaseSensitivity@Qt@@@Z 1002d924 f   Qt5Core:Qt5Core.dll
 0001:0002c92a       ??YQString@@QAEAAV0@VQChar@@@Z 1002d92a f   Qt5Core:Qt5Core.dll
 0001:0002c930       ??YQString@@QAEAAV0@PBD@Z  1002d930 f   Qt5Core:Qt5Core.dll
 0001:0002c936       ?isAbsolute@QFileInfo@@QBE_NXZ 1002d936 f   Qt5Core:Qt5Core.dll
 0001:0002c93c       ??0QDir@@QAE@ABVQString@@@Z 1002d93c f   Qt5Core:Qt5Core.dll
 0001:0002c942       ??1QDir@@QAE@XZ            1002d942 f   Qt5Core:Qt5Core.dll
 0001:0002c948       ?mkpath@QDir@@QBE_NABVQString@@@Z 1002d948 f   Qt5Core:Qt5Core.dll
 0001:0002c94e       ?separator@QDir@@SA?AVQChar@@XZ 1002d94e f   Qt5Core:Qt5Core.dll
 0001:0002c954       ?instance@QCoreApplication@@SAPAV1@XZ 1002d954 f   Qt5Core:Qt5Core.dll
 0001:0002c95a       ?setLibraryPaths@QCoreApplication@@SAXABVQStringList@@@Z 1002d95a f   Qt5Core:Qt5Core.dll
 0001:0002c960       ?quit@QCoreApplication@@SAXXZ 1002d960 f   Qt5Core:Qt5Core.dll
 0001:0002c966       ?warning@QMessageLogger@@QBE?AVQDebug@@XZ 1002d966 f   Qt5Core:Qt5Core.dll
 0001:0002c96c       ??4QByteArray@@QAEAAV0@$$QAV0@@Z 1002d96c f   Qt5Core:Qt5Core.dll
 0001:0002c972       ?isNull@QByteArray@@QBE_NXZ 1002d972 f   Qt5Core:Qt5Core.dll
 0001:0002c978       ?indexOf@QString@@QBEHABV1@HW4CaseSensitivity@Qt@@@Z 1002d978 f   Qt5Core:Qt5Core.dll
 0001:0002c97e       ?left@QString@@QBE?AV1@H@Z 1002d97e f   Qt5Core:Qt5Core.dll
 0001:0002c984       ?toUtf8@QString@@QBE?AVQByteArray@@XZ 1002d984 f   Qt5Core:Qt5Core.dll
 0001:0002c98a       ?fromUtf8@QString@@SA?AV1@ABVQByteArray@@@Z 1002d98a f   Qt5Core:Qt5Core.dll
 0001:0002c990       ??8@YA_NABVQString@@0@Z    1002d990 f   Qt5Core:Qt5Core.dll
 0001:0002c996       ?detach@QListData@@QAEPAUData@1@H@Z 1002d996 f   Qt5Core:Qt5Core.dll
 0001:0002c99c       ?append@QListData@@QAEPAPAXABU1@@Z 1002d99c f   Qt5Core:Qt5Core.dll
 0001:0002c9a2       ?size@QListData@@QBEHXZ    1002d9a2 f   Qt5Core:Qt5Core.dll
 0001:0002c9a8       ?isEmpty@QListData@@QBE_NXZ 1002d9a8 f   Qt5Core:Qt5Core.dll
 0001:0002c9ae       ?at@QListData@@QBEPAPAXH@Z 1002d9ae f   Qt5Core:Qt5Core.dll
 0001:0002c9b4       ?readLine@QIODevice@@QAE?AVQByteArray@@_J@Z 1002d9b4 f   Qt5Core:Qt5Core.dll
 0001:0002c9ba       ??0QTextStream@@QAE@PAVQIODevice@@@Z 1002d9ba f   Qt5Core:Qt5Core.dll
 0001:0002c9c0       ??1QTextStream@@UAE@XZ     1002d9c0 f   Qt5Core:Qt5Core.dll
 0001:0002c9c6       ?atEnd@QTextStream@@QBE_NXZ 1002d9c6 f   Qt5Core:Qt5Core.dll
 0001:0002c9cc       ?readLine@QTextStream@@QAE?AVQString@@_J@Z 1002d9cc f   Qt5Core:Qt5Core.dll
 0001:0002c9d2       ??6QTextStream@@QAEAAV0@ABVQByteArray@@@Z 1002d9d2 f   Qt5Core:Qt5Core.dll
 0001:0002c9d8       ??6QTextStream@@QAEAAV0@PBD@Z 1002d9d8 f   Qt5Core:Qt5Core.dll
 0001:0002c9de       ??6QDebug@@QAEAAV0@ABVQString@@@Z 1002d9de f   Qt5Core:Qt5Core.dll
 0001:0002c9e4       ?close@QFileDevice@@UAEXXZ 1002d9e4 f   Qt5Core:Qt5Core.dll
 0001:0002c9ea       ??0QFile@@QAE@ABVQString@@@Z 1002d9ea f   Qt5Core:Qt5Core.dll
 0001:0002c9f0       ?exists@QFile@@QBE_NXZ     1002d9f0 f   Qt5Core:Qt5Core.dll
 0001:0002c9f6       ?open@QFile@@UAE_NV?$QFlags@W4OpenModeFlag@QIODevice@@@@@Z 1002d9f6 f   Qt5Core:Qt5Core.dll
 0001:0002c9fc       ?toLower@QString@@QBE?AV1@XZ 1002d9fc f   Qt5Core:Qt5Core.dll
 0001:0002ca02       ??8QString@@QBE_NVQLatin1String@@@Z 1002da02 f   Qt5Core:Qt5Core.dll
 0001:0002ca08       ?toString@QVariant@@QBE?AVQString@@XZ 1002da08 f   Qt5Core:Qt5Core.dll
 0001:0002ca0e       ??0QDebug@@QAE@ABV0@@Z     1002da0e f   Qt5Core:Qt5Core.dll
 0001:0002ca14       ??6@YA?AVQDebug@@V0@ABVQUrl@@@Z 1002da14 f   Qt5Core:Qt5Core.dll
 0001:0002ca1a       ?toUpper@QString@@QBE?AV1@XZ 1002da1a f   Qt5Core:Qt5Core.dll
 0001:0002ca20       ?nospace@QDebug@@QAEAAV1@XZ 1002da20 f   Qt5Core:Qt5Core.dll
 0001:0002ca26       ?maybeSpace@QDebug@@QAEAAV1@XZ 1002da26 f   Qt5Core:Qt5Core.dll
 0001:0002ca2c       ?autoInsertSpaces@QDebug@@QBE_NXZ 1002da2c f   Qt5Core:Qt5Core.dll
 0001:0002ca32       ?setAutoInsertSpaces@QDebug@@QAEX_N@Z 1002da32 f   Qt5Core:Qt5Core.dll
 0001:0002ca38       ??6QDebug@@QAEAAV0@_N@Z    1002da38 f   Qt5Core:Qt5Core.dll
 0001:0002ca3e       ??6QDebug@@QAEAAV0@D@Z     1002da3e f   Qt5Core:Qt5Core.dll
 0001:0002ca44       ?absolutePath@QDir@@QBE?AVQString@@XZ 1002da44 f   Qt5Core:Qt5Core.dll
 0001:0002ca4a       ?filePath@QDir@@QBE?AVQString@@ABV2@@Z 1002da4a f   Qt5Core:Qt5Core.dll
 0001:0002ca50       ?entryList@QDir@@QBE?AVQStringList@@ABV2@V?$QFlags@W4Filter@QDir@@@@V?$QFlags@W4SortFlag@QDir@@@@@Z 1002da50 f   Qt5Core:Qt5Core.dll
 0001:0002ca56       ?libraryPaths@QCoreApplication@@SA?AVQStringList@@XZ 1002da56 f   Qt5Core:Qt5Core.dll
 0001:0002ca5c       ?isLibrary@QLibrary@@SA_NABVQString@@@Z 1002da5c f   Qt5Core:Qt5Core.dll
 0001:0002ca62       ??0QPluginLoader@@QAE@ABVQString@@PAVQObject@@@Z 1002da62 f   Qt5Core:Qt5Core.dll
 0001:0002ca68       ??1QPluginLoader@@UAE@XZ   1002da68 f   Qt5Core:Qt5Core.dll
 0001:0002ca6e       ?instance@QPluginLoader@@QAEPAVQObject@@XZ 1002da6e f   Qt5Core:Qt5Core.dll
 0001:0002ca74       ?errorString@QPluginLoader@@QBE?AVQString@@XZ 1002da74 f   Qt5Core:Qt5Core.dll
 0001:0002ca7a       ??0QVariant@@QAE@W4Type@0@@Z 1002da7a f   Qt5Core:Qt5Core.dll
 0001:0002ca80       ??0QVariant@@QAE@ABVQStringList@@@Z 1002da80 f   Qt5Core:Qt5Core.dll
 0001:0002ca86       ?type@QVariant@@QBE?AW4Type@1@XZ 1002da86 f   Qt5Core:Qt5Core.dll
 0001:0002ca8c       ?isValid@QVariant@@QBE_NXZ 1002da8c f   Qt5Core:Qt5Core.dll
 0001:0002ca92       ?isNull@QVariant@@QBE_NXZ  1002da92 f   Qt5Core:Qt5Core.dll
 0001:0002ca98       ?toStringList@QVariant@@QBE?AVQStringList@@XZ 1002da98 f   Qt5Core:Qt5Core.dll
 0001:0002ca9e       ??8QVariant@@QBE_NABV0@@Z  1002da9e f   Qt5Core:Qt5Core.dll
 0001:0002caa4       ?execute@QProcess@@SAHABVQString@@ABVQStringList@@@Z 1002daa4 f   Qt5Core:Qt5Core.dll
 0001:0002caaa       ?execute@QProcess@@SAHABVQString@@@Z 1002daaa f   Qt5Core:Qt5Core.dll
 0001:0002cab0       ?arguments@QCoreApplication@@SA?AVQStringList@@XZ 1002dab0 f   Qt5Core:Qt5Core.dll
 0001:0002cab6       ?qBadAlloc@@YAXXZ          1002dab6 f   Qt5Core:Qt5Core.dll
 0001:0002cabc       ??0QPoint@@QAE@HH@Z        1002dabc f   Qt5Core:Qt5Core.dll
 0001:0002cac2       ?x@QPoint@@QBEHXZ          1002dac2 f   Qt5Core:Qt5Core.dll
 0001:0002cac8       ?y@QPoint@@QBEHXZ          1002dac8 f   Qt5Core:Qt5Core.dll
 0001:0002cace       ?toDouble@QVariant@@QBENPA_N@Z 1002dace f   Qt5Core:Qt5Core.dll
 0001:0002cad4       ??4QUrl@@QAEAAV0@$$QAV0@@Z 1002dad4 f   Qt5Core:Qt5Core.dll
 0001:0002cada       ??0QSize@@QAE@HH@Z         1002dada f   Qt5Core:Qt5Core.dll
 0001:0002cae0       ?constData@QByteArray@@QBEPBDXZ 1002dae0 f   Qt5Core:Qt5Core.dll
 0001:0002cae6       ?toLocal8Bit@QString@@QBE?AVQByteArray@@XZ 1002dae6 f   Qt5Core:Qt5Core.dll
 0001:0002caec       ?nextNode@QMapNodeBase@@QAEPAU1@XZ 1002daec f   Qt5Core:Qt5Core.dll
 0001:0002caf2       ??0QVariant@@QAE@_N@Z      1002daf2 f   Qt5Core:Qt5Core.dll
 0001:0002caf8       ?data@QByteArray@@QAEPADXZ 1002daf8 f   Qt5Core:Qt5Core.dll
 0001:0002cafe       ?codecForName@QTextCodec@@SAPAV1@PBD@Z 1002dafe f   Qt5Core:Qt5Core.dll
 0001:0002cb04       ?mkdir@QDir@@QBE_NABVQString@@@Z 1002db04 f   Qt5Core:Qt5Core.dll
 0001:0002cb0a       ?exists@QDir@@QBE_NXZ      1002db0a f   Qt5Core:Qt5Core.dll
 0001:0002cb10       ??BQByteArray@@QBEPBDXZ    1002db10 f   Qt5Core:Qt5Core.dll
 0001:0002cb16       ??0QVariant@@QAE@_J@Z      1002db16 f   Qt5Core:Qt5Core.dll
 0001:0002cb1c       ??0QVariant@@QAE@ABVQByteArray@@@Z 1002db1c f   Qt5Core:Qt5Core.dll
 0001:0002cb22       ?toByteArray@QVariant@@QBE?AVQByteArray@@XZ 1002db22 f   Qt5Core:Qt5Core.dll
 0001:0002cb28       ?remove@QFile@@SA_NABVQString@@@Z 1002db28 f   Qt5Core:Qt5Core.dll
 0001:0002cb2e       ?rename@QFile@@SA_NABVQString@@0@Z 1002db2e f   Qt5Core:Qt5Core.dll
 0001:0002cb34       ?copy@QFile@@SA_NABVQString@@0@Z 1002db34 f   Qt5Core:Qt5Core.dll
 0001:0002cb3a       ?toLatin1@QString@@QBE?AVQByteArray@@XZ 1002db3a f   Qt5Core:Qt5Core.dll
 0001:0002cb40       ??0QVariant@@QAE@$$QAV0@@Z 1002db40 f   Qt5Core:Qt5Core.dll
 0001:0002cb46       ??0QLibrary@@QAE@ABVQString@@PAVQObject@@@Z 1002db46 f   Qt5Core:Qt5Core.dll
 0001:0002cb4c       ??1QLibrary@@UAE@XZ        1002db4c f   Qt5Core:Qt5Core.dll
 0001:0002cb52       ?resolve@QLibrary@@QAEP6AXXZPBD@Z 1002db52 f   Qt5Core:Qt5Core.dll
 0001:0002cb58       ?load@QLibrary@@QAE_NXZ    1002db58 f   Qt5Core:Qt5Core.dll
 0001:0002cb5e       ?unload@QLibrary@@QAE_NXZ  1002db5e f   Qt5Core:Qt5Core.dll
 0001:0002cb64       ?isLoaded@QLibrary@@QBE_NXZ 1002db64 f   Qt5Core:Qt5Core.dll
 0001:0002cb6a       ?metaObject@QLibrary@@UBEPBUQMetaObject@@XZ 1002db6a f   Qt5Core:Qt5Core.dll
 0001:0002cb70       ?qt_metacall@QLibrary@@UAEHW4Call@QMetaObject@@HPAPAX@Z 1002db70 f   Qt5Core:Qt5Core.dll
 0001:0002cb76       ?qt_metacast@QLibrary@@UAEPAXPBD@Z 1002db76 f   Qt5Core:Qt5Core.dll
 0001:0002cb7c       ?metaObject@QObject@@UBEPBUQMetaObject@@XZ 1002db7c f   Qt5Core:Qt5Core.dll
 0001:0002cb82       ??0QVariant@@QAE@XZ        1002db82 f   Qt5Core:Qt5Core.dll
 0001:0002cb88       ?exists@QFile@@SA_NABVQString@@@Z 1002db88 f   Qt5Core:Qt5Core.dll
 0001:0002cb8e       ?registerResource@QResource@@SA_NABVQString@@0@Z 1002db8e f   Qt5Core:Qt5Core.dll
 0001:0002cb94       ??0QSettings@@QAE@ABVQString@@W4Format@0@PAVQObject@@@Z 1002db94 f   Qt5Core:Qt5Core.dll
 0001:0002cb9a       ??1QSettings@@UAE@XZ       1002db9a f   Qt5Core:Qt5Core.dll
 0001:0002cba0       ?value@QSettings@@QBE?AVQVariant@@ABVQString@@ABV2@@Z 1002dba0 f   Qt5Core:Qt5Core.dll
 0001:0002cba6       ?size@QString@@QBEHXZ      1002dba6 f   Qt5Core:Qt5Core.dll
 0001:0002cbac       ?indexOf@QString@@QBEHAAVQRegExp@@H@Z 1002dbac f   Qt5Core:Qt5Core.dll
 0001:0002cbb2       ?trimmed@QString@@QBE?AV1@XZ 1002dbb2 f   Qt5Core:Qt5Core.dll
 0001:0002cbb8       ??9QString@@QBE_NPBD@Z     1002dbb8 f   Qt5Core:Qt5Core.dll
 0001:0002cbbe       ??0QRegExp@@QAE@ABVQString@@W4CaseSensitivity@Qt@@W4PatternSyntax@0@@Z 1002dbbe f   Qt5Core:Qt5Core.dll
 0001:0002cbc4       ??1QRegExp@@QAE@XZ         1002dbc4 f   Qt5Core:Qt5Core.dll
 0001:0002cbca       ?cap@QRegExp@@QAE?AVQString@@H@Z 1002dbca f   Qt5Core:Qt5Core.dll
 0001:0002cbd0       ?codecForName@QTextCodec@@SAPAV1@ABVQByteArray@@@Z 1002dbd0 f   Qt5Core:Qt5Core.dll
 0001:0002cbd6       ??0QTextStream@@QAE@ABVQByteArray@@V?$QFlags@W4OpenModeFlag@QIODevice@@@@@Z 1002dbd6 f   Qt5Core:Qt5Core.dll
 0001:0002cbdc       ?setCodec@QTextStream@@QAEXPAVQTextCodec@@@Z 1002dbdc f   Qt5Core:Qt5Core.dll
 0001:0002cbe2       ?readAll@QTextStream@@QAE?AVQString@@XZ 1002dbe2 f   Qt5Core:Qt5Core.dll
 0001:0002cbe8       ?toEncoded@QUrl@@QBE?AVQByteArray@@V?$QUrlTwoFlags@W4UrlFormattingOption@QUrl@@W4ComponentFormattingOption@2@@@@Z 1002dbe8 f   Qt5Core:Qt5Core.dll
 0001:0002cbee       ??0QEventLoop@@QAE@PAVQObject@@@Z 1002dbee f   Qt5Core:Qt5Core.dll
 0001:0002cbf4       ??1QEventLoop@@UAE@XZ      1002dbf4 f   Qt5Core:Qt5Core.dll
 0001:0002cbfa       ?exec@QEventLoop@@QAEHV?$QFlags@W4ProcessEventsFlag@QEventLoop@@@@@Z 1002dbfa f   Qt5Core:Qt5Core.dll
 0001:0002cc00       ?unregisterResource@QResource@@SA_NABVQString@@0@Z 1002dc00 f   Qt5Core:Qt5Core.dll
 0001:0002cc06       ??0QIcon@@QAE@XZ           1002dc06 f   Qt5Gui:Qt5Gui.dll
 0001:0002cc0c       ??0QIcon@@QAE@ABVQString@@@Z 1002dc0c f   Qt5Gui:Qt5Gui.dll
 0001:0002cc12       ??1QIcon@@QAE@XZ           1002dc12 f   Qt5Gui:Qt5Gui.dll
 0001:0002cc18       ??4QIcon@@QAEAAV0@ABV0@@Z  1002dc18 f   Qt5Gui:Qt5Gui.dll
 0001:0002cc1e       ??0QIcon@@QAE@ABV0@@Z      1002dc1e f   Qt5Gui:Qt5Gui.dll
 0001:0002cc24       ??0QMovie@@QAE@ABVQString@@ABVQByteArray@@PAVQObject@@@Z 1002dc24 f   Qt5Gui:Qt5Gui.dll
 0001:0002cc2a       ??1QMovie@@UAE@XZ          1002dc2a f   Qt5Gui:Qt5Gui.dll
 0001:0002cc30       ?start@QMovie@@QAEXXZ      1002dc30 f   Qt5Gui:Qt5Gui.dll
 0001:0002cc36       ?stop@QMovie@@QAEXXZ       1002dc36 f   Qt5Gui:Qt5Gui.dll
 0001:0002cc3c       ?openUrl@QDesktopServices@@SA_NABVQUrl@@@Z 1002dc3c f   Qt5Gui:Qt5Gui.dll
 0001:0002cc42       ?metaObject@QMovie@@UBEPBUQMetaObject@@XZ 1002dc42 f   Qt5Gui:Qt5Gui.dll
 0001:0002cc48       ?qt_metacall@QMovie@@UAEHW4Call@QMetaObject@@HPAPAX@Z 1002dc48 f   Qt5Gui:Qt5Gui.dll
 0001:0002cc4e       ?qt_metacast@QMovie@@UAEPAXPBD@Z 1002dc4e f   Qt5Gui:Qt5Gui.dll
 0001:0002cc54       ?qt_metacast@QWebPluginFactory@@UAEPAXPBD@Z 1002dc54 f   Qt5WebKit:Qt5WebKit.dll
 0001:0002cc5a       ?qt_metacall@QWebPluginFactory@@UAEHW4Call@QMetaObject@@HPAPAX@Z 1002dc5a f   Qt5WebKit:Qt5WebKit.dll
 0001:0002cc60       ?globalSettings@QWebSettings@@SAPAV1@XZ 1002dc60 f   Qt5WebKit:Qt5WebKit.dll
 0001:0002cc66       ?setAttribute@QWebSettings@@QAEXW4WebAttribute@1@_N@Z 1002dc66 f   Qt5WebKit:Qt5WebKit.dll
 0001:0002cc6c       ?enablePersistentStorage@QWebSettings@@SAXABVQString@@@Z 1002dc6c f   Qt5WebKit:Qt5WebKit.dll
 0001:0002cc72       ??1MimeType@QWebPluginFactory@@QAE@XZ 1002dc72 f   Qt5WebKit:Qt5WebKit.dll
 0001:0002cc78       ??0MimeType@QWebPluginFactory@@QAE@ABU01@@Z 1002dc78 f   Qt5WebKit:Qt5WebKit.dll
 0001:0002cc7e       ??0QWebPluginFactory@@QAE@PAVQObject@@@Z 1002dc7e f   Qt5WebKit:Qt5WebKit.dll
 0001:0002cc84       ??1QWebPluginFactory@@UAE@XZ 1002dc84 f   Qt5WebKit:Qt5WebKit.dll
 0001:0002cc8a       ?refreshPlugins@QWebPluginFactory@@UAEXXZ 1002dc8a f   Qt5WebKit:Qt5WebKit.dll
 0001:0002cc90       ?clearMemoryCaches@QWebSettings@@SAXXZ 1002dc90 f   Qt5WebKit:Qt5WebKit.dll
 0001:0002cc96       ?qt_metacast@QWebView@@UAEPAXPBD@Z 1002dc96 f   Qt5WebKitWidgets:Qt5WebKitWidgets.dll
 0001:0002cc9c       ?qt_metacall@QWebView@@UAEHW4Call@QMetaObject@@HPAPAX@Z 1002dc9c f   Qt5WebKitWidgets:Qt5WebKitWidgets.dll
 0001:0002cca2       ?qt_metacast@QWebPage@@UAEPAXPBD@Z 1002dca2 f   Qt5WebKitWidgets:Qt5WebKitWidgets.dll
 0001:0002cca8       ?qt_metacall@QWebPage@@UAEHW4Call@QMetaObject@@HPAPAX@Z 1002dca8 f   Qt5WebKitWidgets:Qt5WebKitWidgets.dll
 0001:0002ccae       ?networkAccessManager@QWebPage@@QBEPAVQNetworkAccessManager@@XZ 1002dcae f   Qt5WebKitWidgets:Qt5WebKitWidgets.dll
 0001:0002ccb4       ?setPluginFactory@QWebPage@@QAEXPAVQWebPluginFactory@@@Z 1002dcb4 f   Qt5WebKitWidgets:Qt5WebKitWidgets.dll
 0001:0002ccba       ??0QWebView@@QAE@PAVQWidget@@@Z 1002dcba f   Qt5WebKitWidgets:Qt5WebKitWidgets.dll
 0001:0002ccc0       ??1QWebView@@UAE@XZ        1002dcc0 f   Qt5WebKitWidgets:Qt5WebKitWidgets.dll
 0001:0002ccc6       ?page@QWebView@@QBEPAVQWebPage@@XZ 1002dcc6 f   Qt5WebKitWidgets:Qt5WebKitWidgets.dll
 0001:0002cccc       ?setPage@QWebView@@QAEXPAVQWebPage@@@Z 1002dccc f   Qt5WebKitWidgets:Qt5WebKitWidgets.dll
 0001:0002ccd2       ?load@QWebView@@QAEXABVQUrl@@@Z 1002dcd2 f   Qt5WebKitWidgets:Qt5WebKitWidgets.dll
 0001:0002ccd8       ?setRenderHints@QWebView@@QAEXV?$QFlags@W4RenderHint@QPainter@@@@@Z 1002dcd8 f   Qt5WebKitWidgets:Qt5WebKitWidgets.dll
 0001:0002ccde       ?event@QWebView@@UAE_NPAVQEvent@@@Z 1002dcde f   Qt5WebKitWidgets:Qt5WebKitWidgets.dll
 0001:0002cce4       ?changeEvent@QWebView@@MAEXPAVQEvent@@@Z 1002dce4 f   Qt5WebKitWidgets:Qt5WebKitWidgets.dll
 0001:0002ccea       ?contextMenuEvent@QWebView@@MAEXPAVQContextMenuEvent@@@Z 1002dcea f   Qt5WebKitWidgets:Qt5WebKitWidgets.dll
 0001:0002ccf0       ?createWindow@QWebView@@MAEPAV1@W4WebWindowType@QWebPage@@@Z 1002dcf0 f   Qt5WebKitWidgets:Qt5WebKitWidgets.dll
 0001:0002ccf6       ?dragEnterEvent@QWebView@@MAEXPAVQDragEnterEvent@@@Z 1002dcf6 f   Qt5WebKitWidgets:Qt5WebKitWidgets.dll
 0001:0002ccfc       ?dragLeaveEvent@QWebView@@MAEXPAVQDragLeaveEvent@@@Z 1002dcfc f   Qt5WebKitWidgets:Qt5WebKitWidgets.dll
 0001:0002cd02       ?dragMoveEvent@QWebView@@MAEXPAVQDragMoveEvent@@@Z 1002dd02 f   Qt5WebKitWidgets:Qt5WebKitWidgets.dll
 0001:0002cd08       ?dropEvent@QWebView@@MAEXPAVQDropEvent@@@Z 1002dd08 f   Qt5WebKitWidgets:Qt5WebKitWidgets.dll
 0001:0002cd0e       ?focusInEvent@QWebView@@MAEXPAVQFocusEvent@@@Z 1002dd0e f   Qt5WebKitWidgets:Qt5WebKitWidgets.dll
 0001:0002cd14       ?focusNextPrevChild@QWebView@@MAE_N_N@Z 1002dd14 f   Qt5WebKitWidgets:Qt5WebKitWidgets.dll
 0001:0002cd1a       ?focusOutEvent@QWebView@@MAEXPAVQFocusEvent@@@Z 1002dd1a f   Qt5WebKitWidgets:Qt5WebKitWidgets.dll
 0001:0002cd20       ?inputMethodEvent@QWebView@@MAEXPAVQInputMethodEvent@@@Z 1002dd20 f   Qt5WebKitWidgets:Qt5WebKitWidgets.dll
 0001:0002cd26       ?inputMethodQuery@QWebView@@UBE?AVQVariant@@W4InputMethodQuery@Qt@@@Z 1002dd26 f   Qt5WebKitWidgets:Qt5WebKitWidgets.dll
 0001:0002cd2c       ?keyPressEvent@QWebView@@MAEXPAVQKeyEvent@@@Z 1002dd2c f   Qt5WebKitWidgets:Qt5WebKitWidgets.dll
 0001:0002cd32       ?keyReleaseEvent@QWebView@@MAEXPAVQKeyEvent@@@Z 1002dd32 f   Qt5WebKitWidgets:Qt5WebKitWidgets.dll
 0001:0002cd38       ?mouseDoubleClickEvent@QWebView@@MAEXPAVQMouseEvent@@@Z 1002dd38 f   Qt5WebKitWidgets:Qt5WebKitWidgets.dll
 0001:0002cd3e       ?mouseMoveEvent@QWebView@@MAEXPAVQMouseEvent@@@Z 1002dd3e f   Qt5WebKitWidgets:Qt5WebKitWidgets.dll
 0001:0002cd44       ?mousePressEvent@QWebView@@MAEXPAVQMouseEvent@@@Z 1002dd44 f   Qt5WebKitWidgets:Qt5WebKitWidgets.dll
 0001:0002cd4a       ?mouseReleaseEvent@QWebView@@MAEXPAVQMouseEvent@@@Z 1002dd4a f   Qt5WebKitWidgets:Qt5WebKitWidgets.dll
 0001:0002cd50       ?paintEvent@QWebView@@MAEXPAVQPaintEvent@@@Z 1002dd50 f   Qt5WebKitWidgets:Qt5WebKitWidgets.dll
 0001:0002cd56       ?resizeEvent@QWebView@@MAEXPAVQResizeEvent@@@Z 1002dd56 f   Qt5WebKitWidgets:Qt5WebKitWidgets.dll
 0001:0002cd5c       ?sizeHint@QWebView@@UBE?AVQSize@@XZ 1002dd5c f   Qt5WebKitWidgets:Qt5WebKitWidgets.dll
 0001:0002cd62       ?wheelEvent@QWebView@@MAEXPAVQWheelEvent@@@Z 1002dd62 f   Qt5WebKitWidgets:Qt5WebKitWidgets.dll
 0001:0002cd68       ?setUrl@QWebView@@QAEXABVQUrl@@@Z 1002dd68 f   Qt5WebKitWidgets:Qt5WebKitWidgets.dll
 0001:0002cd6e       ??0QWebPage@@QAE@PAVQObject@@@Z 1002dd6e f   Qt5WebKitWidgets:Qt5WebKitWidgets.dll
 0001:0002cd74       ??1QWebPage@@UAE@XZ        1002dd74 f   Qt5WebKitWidgets:Qt5WebKitWidgets.dll
 0001:0002cd7a       ?currentFrame@QWebPage@@QBEPAVQWebFrame@@XZ 1002dd7a f   Qt5WebKitWidgets:Qt5WebKitWidgets.dll
 0001:0002cd80       ?setForwardUnsupportedContent@QWebPage@@QAEX_N@Z 1002dd80 f   Qt5WebKitWidgets:Qt5WebKitWidgets.dll
 0001:0002cd86       ?setFeaturePermission@QWebPage@@QAEXPAVQWebFrame@@W4Feature@1@W4PermissionPolicy@1@@Z 1002dd86 f   Qt5WebKitWidgets:Qt5WebKitWidgets.dll
 0001:0002cd8c       ?linkClicked@QWebPage@@QAEXABVQUrl@@@Z 1002dd8c f   Qt5WebKitWidgets:Qt5WebKitWidgets.dll
 0001:0002cd92       ?downloadRequested@QWebPage@@QAEXABVQNetworkRequest@@@Z 1002dd92 f   Qt5WebKitWidgets:Qt5WebKitWidgets.dll
 0001:0002cd98       ?acceptNavigationRequest@QWebPage@@MAE_NPAVQWebFrame@@ABVQNetworkRequest@@W4NavigationType@1@@Z 1002dd98 f   Qt5WebKitWidgets:Qt5WebKitWidgets.dll
 0001:0002cd9e       ?chooseFile@QWebPage@@MAE?AVQString@@PAVQWebFrame@@ABV2@@Z 1002dd9e f   Qt5WebKitWidgets:Qt5WebKitWidgets.dll
 0001:0002cda4       ?createPlugin@QWebPage@@MAEPAVQObject@@ABVQString@@ABVQUrl@@ABVQStringList@@2@Z 1002dda4 f   Qt5WebKitWidgets:Qt5WebKitWidgets.dll
 0001:0002cdaa       ?createWindow@QWebPage@@MAEPAV1@W4WebWindowType@1@@Z 1002ddaa f   Qt5WebKitWidgets:Qt5WebKitWidgets.dll
 0001:0002cdb0       ?event@QWebPage@@UAE_NPAVQEvent@@@Z 1002ddb0 f   Qt5WebKitWidgets:Qt5WebKitWidgets.dll
 0001:0002cdb6       ?extension@QWebPage@@UAE_NW4Extension@1@PBVExtensionOption@1@PAVExtensionReturn@1@@Z 1002ddb6 f   Qt5WebKitWidgets:Qt5WebKitWidgets.dll
 0001:0002cdbc       ?javaScriptAlert@QWebPage@@MAEXPAVQWebFrame@@ABVQString@@@Z 1002ddbc f   Qt5WebKitWidgets:Qt5WebKitWidgets.dll
 0001:0002cdc2       ?javaScriptConfirm@QWebPage@@MAE_NPAVQWebFrame@@ABVQString@@@Z 1002ddc2 f   Qt5WebKitWidgets:Qt5WebKitWidgets.dll
 0001:0002cdc8       ?javaScriptConsoleMessage@QWebPage@@MAEXABVQString@@H0@Z 1002ddc8 f   Qt5WebKitWidgets:Qt5WebKitWidgets.dll
 0001:0002cdce       ?javaScriptPrompt@QWebPage@@MAE_NPAVQWebFrame@@ABVQString@@1PAV3@@Z 1002ddce f   Qt5WebKitWidgets:Qt5WebKitWidgets.dll
 0001:0002cdd4       ?shouldInterruptJavaScript@QWebPage@@UAE_NXZ 1002ddd4 f   Qt5WebKitWidgets:Qt5WebKitWidgets.dll
 0001:0002cdda       ?supportsExtension@QWebPage@@UBE_NW4Extension@1@@Z 1002ddda f   Qt5WebKitWidgets:Qt5WebKitWidgets.dll
 0001:0002cde0       ?triggerAction@QWebPage@@UAEXW4WebAction@1@_N@Z 1002dde0 f   Qt5WebKitWidgets:Qt5WebKitWidgets.dll
 0001:0002cde6       ?userAgentForUrl@QWebPage@@MBE?AVQString@@ABVQUrl@@@Z 1002dde6 f   Qt5WebKitWidgets:Qt5WebKitWidgets.dll
 0001:0002cdec       ?mainFrame@QWebPage@@QBEPAVQWebFrame@@XZ 1002ddec f   Qt5WebKitWidgets:Qt5WebKitWidgets.dll
 0001:0002cdf2       ?toHtml@QWebFrame@@QBE?AVQString@@XZ 1002ddf2 f   Qt5WebKitWidgets:Qt5WebKitWidgets.dll
 0001:0002cdf8       ?evaluateJavaScript@QWebFrame@@QAE?AVQVariant@@ABVQString@@@Z 1002ddf8 f   Qt5WebKitWidgets:Qt5WebKitWidgets.dll
 0001:0002cdfe       ?setHtml@QWebView@@QAEXABVQString@@ABVQUrl@@@Z 1002ddfe f   Qt5WebKitWidgets:Qt5WebKitWidgets.dll
 0001:0002ce04       ?url@QWebView@@QBE?AVQUrl@@XZ 1002de04 f   Qt5WebKitWidgets:Qt5WebKitWidgets.dll
 0001:0002ce0a       ?stop@QWebView@@QAEXXZ     1002de0a f   Qt5WebKitWidgets:Qt5WebKitWidgets.dll
 0001:0002ce10       ?reload@QWebView@@QAEXXZ   1002de10 f   Qt5WebKitWidgets:Qt5WebKitWidgets.dll
 0001:0002ce16       ?addToJavaScriptWindowObject@QWebFrame@@QAEXABVQString@@PAVQObject@@W4ValueOwnership@1@@Z 1002de16 f   Qt5WebKitWidgets:Qt5WebKitWidgets.dll
 0001:0002ce1c       ??0QSqlDatabase@@QAE@XZ    1002de1c f   Qt5Sql:Qt5Sql.dll
 0001:0002ce22       ??1QSqlDatabase@@QAE@XZ    1002de22 f   Qt5Sql:Qt5Sql.dll
 0001:0002ce28       ??0QSqlQuery@@QAE@ABVQString@@VQSqlDatabase@@@Z 1002de28 f   Qt5Sql:Qt5Sql.dll
 0001:0002ce2e       ??1QSqlQuery@@QAE@XZ       1002de2e f   Qt5Sql:Qt5Sql.dll
 0001:0002ce34       ?exec@QSqlQuery@@QAE_NABVQString@@@Z 1002de34 f   Qt5Sql:Qt5Sql.dll
 0001:0002ce3a       ?value@QSqlQuery@@QBE?AVQVariant@@H@Z 1002de3a f   Qt5Sql:Qt5Sql.dll
 0001:0002ce40       ?next@QSqlQuery@@QAE_NXZ   1002de40 f   Qt5Sql:Qt5Sql.dll
 0001:0002ce46       ?previous@QSqlQuery@@QAE_NXZ 1002de46 f   Qt5Sql:Qt5Sql.dll
 0001:0002ce4c       ??0QPrintPreviewDialog@@QAE@PAVQWidget@@V?$QFlags@W4WindowType@Qt@@@@@Z 1002de4c f   Qt5PrintSupport:Qt5PrintSupport.dll
 0001:0002ce52       ??1QPrintPreviewDialog@@UAE@XZ 1002de52 f   Qt5PrintSupport:Qt5PrintSupport.dll
 0001:0002ce58       ?done@QPrintPreviewDialog@@UAEXH@Z 1002de58 f   Qt5PrintSupport:Qt5PrintSupport.dll
 0001:0002ce5e       ?metaObject@QPrintPreviewDialog@@UBEPBUQMetaObject@@XZ 1002de5e f   Qt5PrintSupport:Qt5PrintSupport.dll
 0001:0002ce64       ?qt_metacall@QPrintPreviewDialog@@UAEHW4Call@QMetaObject@@HPAPAX@Z 1002de64 f   Qt5PrintSupport:Qt5PrintSupport.dll
 0001:0002ce6a       ?qt_metacast@QPrintPreviewDialog@@UAEPAXPBD@Z 1002de6a f   Qt5PrintSupport:Qt5PrintSupport.dll
 0001:0002ce70       ?setVisible@QPrintPreviewDialog@@UAEX_N@Z 1002de70 f   Qt5PrintSupport:Qt5PrintSupport.dll
 0001:0002ce76       _SetWindowLongW@12         1002de76 f   user32:USER32.dll
 0001:0002ce7c       _SendMessageW@16           1002de7c f   user32:USER32.dll
 0001:0002ce82       _ShowWindow@8              1002de82 f   user32:USER32.dll
 0001:0002ce88       _SetWindowPos@28           1002de88 f   user32:USER32.dll
 0001:0002ce8e       _ReleaseCapture@0          1002de8e f   user32:USER32.dll
 0001:0002ce94       ?_Xbad_alloc@std@@YAXXZ    1002de94 f   msvcprt:MSVCP120.dll
 0001:0002ce9a       ?_Xlength_error@std@@YAXPBD@Z 1002de9a f   msvcprt:MSVCP120.dll
 0001:0002cea0       ?_Xout_of_range@std@@YAXPBD@Z 1002dea0 f   msvcprt:MSVCP120.dll
 0001:0002cea6       ??0id@locale@std@@QAE@I@Z  1002dea6 f   msvcprt:MSVCP120.dll
 0001:0002ceac       ?_Syserror_map@std@@YAPBDH@Z 1002deac f   msvcprt:MSVCP120.dll
 0001:0002ceb2       ?_Winerror_map@std@@YAPBDH@Z 1002deb2 f   msvcprt:MSVCP120.dll
 0001:0002ceb8       ?_Orphan_all@_Container_base0@std@@QAEXXZ 1002deb8 f   msvcprt:MSVCP120.dll
 0001:0002cebe       __purecall                 1002debe f   MSVCRT:MSVCR120.dll
 0001:0002cec4       ??2@YAPAXI@Z               1002dec4 f   MSVCRT:MSVCR120.dll
 0001:0002ceca       ??3@YAXPAX@Z               1002deca f   MSVCRT:MSVCR120.dll
 0001:0002ced0       ___atonexitinit            1002ded0 f   MSVCRT:atonexit.obj
 0001:0002cf0c       __onexit                   1002df0c f   MSVCRT:atonexit.obj
 0001:0002cfb5       _atexit                    1002dfb5 f   MSVCRT:atonexit.obj
 0001:0002cfca       _memcpy                    1002dfca f   MSVCRT:MSVCR120.dll
 0001:0002cfd0       _strcmp                    1002dfd0 f   MSVCRT:MSVCR120.dll
 0001:0002cfd6       _strlen                    1002dfd6 f   MSVCRT:MSVCR120.dll
 0001:0002cfdc       _memmove                   1002dfdc f   MSVCRT:MSVCR120.dll
 0001:0002cfe2       __hypot                    1002dfe2 f   MSVCRT:MSVCR120.dll
 0001:0002cfe8       @__security_check_cookie@4 1002dfe8 f   MSVCRT:secchk.obj
 0001:0002cff8       __CxxThrowException@8      1002dff8 f   MSVCRT:MSVCR120.dll
 0001:0002cffe       ___CxxFrameHandler3        1002dffe f   MSVCRT:MSVCR120.dll
 0001:0002d004       ??0type_info@@AAE@ABV0@@Z  1002e004 f   MSVCRT:ti_inst.obj
 0001:0002d00f       ??4type_info@@AAEAAV0@ABV0@@Z 1002e00f f   MSVCRT:ti_inst.obj
 0001:0002d014       ??_Etype_info@@UAEPAXI@Z   1002e014 f i MSVCRT:ti_inst.obj
 0001:0002d060       ??_M@YGXPAXIHP6EX0@Z@Z     1002e060 f   MSVCRT:ehvecdtr.obj
 0001:0002d0e8       ?__ArrayUnwind@@YGXPAXIHP6EX0@Z@Z 1002e0e8 f   MSVCRT:ehvecdtr.obj
 0001:0002d146       ??_V@YAXPAX@Z              1002e146 f   MSVCRT:MSVCR120.dll
 0001:0002d198       _NtCurrentTeb              1002e198 f i MSVCRT:crtdll.obj
 0001:0002d19f       __CRT_INIT@12              1002e19f f   MSVCRT:crtdll.obj
 0001:0002d396       __DllMainCRTStartup@12     1002e396 f   MSVCRT:crtdll.obj
 0001:0002d4ec       __lock                     1002e4ec f   MSVCRT:MSVCR120.dll
 0001:0002d4f2       __unlock                   1002e4f2 f   MSVCRT:MSVCR120.dll
 0001:0002d4f8       __calloc_crt               1002e4f8 f   MSVCRT:MSVCR120.dll
 0001:0002d4fe       ___dllonexit               1002e4fe f   MSVCRT:MSVCR120.dll
 0001:0002d510       __SEH_prolog4              1002e510 f   MSVCRT:sehprolg4.obj
 0001:0002d555       __SEH_epilog4              1002e555 f   MSVCRT:sehprolg4.obj
 0001:0002d569       __except_handler4          1002e569 f   MSVCRT:chandler4gs.obj
 0001:0002d58c       ___raise_securityfailure   1002e58c f   MSVCRT:gs_report.obj
 0001:0002d5c9       ___report_gsfailure        1002e5c9 f   MSVCRT:gs_report.obj
 0001:0002d6c4       ___report_rangecheckfailure 1002e6c4 f   MSVCRT:gs_report.obj
 0001:0002d6d0       ___report_securityfailure  1002e6d0 f   MSVCRT:gs_report.obj
 0001:0002d7a0       ___report_securityfailureEx 1002e7a0 f   MSVCRT:gs_report.obj
 0001:0002d8b6       ??1type_info@@UAE@XZ       1002e8b6 f   MSVCRT:MSVCR120.dll
 0001:0002d8bc       ?terminate@@YAXXZ          1002e8bc f   MSVCRT:MSVCR120.dll
 0001:0002d8c2       ___CppXcptFilter           1002e8c2 f   MSVCRT:MSVCR120.dll
 0001:0002d8c8       __amsg_exit                1002e8c8 f   MSVCRT:MSVCR120.dll
 0001:0002d8d0       __FindPESection            1002e8d0 f   MSVCRT:pesect.obj
 0001:0002d920       __IsNonwritableInCurrentImage 1002e920 f   MSVCRT:pesect.obj
 0001:0002d9e0       __ValidateImageBase        1002e9e0 f   MSVCRT:pesect.obj
 0001:0002da12       _free                      1002ea12 f   MSVCRT:MSVCR120.dll
 0001:0002da18       ___security_init_cookie    1002ea18 f   MSVCRT:gs_support.obj
 0001:0002dab4       _DllMain@12                1002eab4 f   MSVCRT:dllmain.obj
 0001:0002dad6       __malloc_crt               1002ead6 f   MSVCRT:MSVCR120.dll
 0001:0002dadc       __RTC_Initialize           1002eadc f   MSVCRT:initsect.obj
 0001:0002dafc       __RTC_Terminate            1002eafc f   MSVCRT:initsect.obj
 0001:0002db1c       __initterm                 1002eb1c f   MSVCRT:MSVCR120.dll
 0001:0002db22       __initterm_e               1002eb22 f   MSVCRT:MSVCR120.dll
 0001:0002db28       ___clean_type_info_names   1002eb28 f   MSVCRT:tncleanup.obj
 0001:0002db34       __except_handler4_common   1002eb34 f   MSVCRT:MSVCR120.dll
 0001:0002db3a       __crt_debugger_hook        1002eb3a f   MSVCRT:MSVCR120.dll
 0001:0002db40       ___crtUnhandledException   1002eb40 f   MSVCRT:MSVCR120.dll
 0001:0002db46       ___crtTerminateProcess     1002eb46 f   MSVCRT:MSVCR120.dll
 0001:0002db4c       ___clean_type_info_names_internal 1002eb4c f   MSVCRT:MSVCR120.dll
 0001:0002db52       _EncodePointer@4           1002eb52 f   kernel32:KERNEL32.dll
 0001:0002db58       _DecodePointer@4           1002eb58 f   kernel32:KERNEL32.dll
 0001:0002db5e       _IsDebuggerPresent@0       1002eb5e f   kernel32:KERNEL32.dll
 0001:0002db64       _IsProcessorFeaturePresent@4 1002eb64 f   kernel32:KERNEL32.dll
 0001:0002db6a       _QueryPerformanceCounter@4 1002eb6a f   kernel32:KERNEL32.dll
 0001:0002db70       _GetCurrentProcessId@0     1002eb70 f   kernel32:KERNEL32.dll
 0001:0002db76       _GetCurrentThreadId@0      1002eb76 f   kernel32:KERNEL32.dll
 0001:0002db7c       _GetSystemTimeAsFileTime@4 1002eb7c f   kernel32:KERNEL32.dll
 0001:0002db82       _DisableThreadLibraryCalls@4 1002eb82 f   kernel32:KERNEL32.dll
 0002:00000000       ___xc_a                    10039000     MSVCRT:cinitexe.obj
 0002:000005a8       ___xc_z                    100395a8     MSVCRT:cinitexe.obj
 0002:000006ac       ___xi_a                    100396ac     MSVCRT:cinitexe.obj
 0002:000009b8       ___xi_z                    100399b8     MSVCRT:cinitexe.obj
 0002:00000af8       ?is_signed@?$numeric_limits@K@std@@2_NB 10039af8     moc_lxbasewin.obj
 0002:00000afc       ?_VBITS@?$vector@_NV?$allocator@_N@std@@@std@@2HB 10039afc     moc_lxbasewin.obj
 0002:00000b00       ?digits@?$numeric_limits@K@std@@2HB 10039b00     moc_lxbasewin.obj
 0002:00000b04       ?digits10@?$numeric_limits@K@std@@2HB 10039b04     moc_lxbasewin.obj
 0002:00000b08       ?is_signed@?$numeric_limits@_J@std@@2_NB 10039b08     moc_lxbasewin.obj
 0002:00000b0c       ?digits@?$numeric_limits@_J@std@@2HB 10039b0c     moc_lxbasewin.obj
 0002:00000b10       ?digits10@?$numeric_limits@_J@std@@2HB 10039b10     moc_lxbasewin.obj
 0002:00000b14       ?is_signed@?$numeric_limits@_K@std@@2_NB 10039b14     moc_lxbasewin.obj
 0002:00000b18       ?digits@?$numeric_limits@_K@std@@2HB 10039b18     moc_lxbasewin.obj
 0002:00000b1c       ?digits10@?$numeric_limits@_K@std@@2HB 10039b1c     moc_lxbasewin.obj
 0002:00000b20       ?digits@?$numeric_limits@M@std@@2HB 10039b20     moc_lxbasewin.obj
 0002:00000b24       ?digits10@?$numeric_limits@M@std@@2HB 10039b24     moc_lxbasewin.obj
 0002:00000b28       ?max_digits10@?$numeric_limits@M@std@@2HB 10039b28     moc_lxbasewin.obj
 0002:00000b2c       ?max_exponent@?$numeric_limits@M@std@@2HB 10039b2c     moc_lxbasewin.obj
 0002:00000b30       ?max_exponent10@?$numeric_limits@M@std@@2HB 10039b30     moc_lxbasewin.obj
 0002:00000b34       ?min_exponent@?$numeric_limits@M@std@@2HB 10039b34     moc_lxbasewin.obj
 0002:00000b38       ?min_exponent10@?$numeric_limits@M@std@@2HB 10039b38     moc_lxbasewin.obj
 0002:00000b3c       ?digits@?$numeric_limits@N@std@@2HB 10039b3c     moc_lxbasewin.obj
 0002:00000b40       ?digits10@?$numeric_limits@N@std@@2HB 10039b40     moc_lxbasewin.obj
 0002:00000b44       ?max_digits10@?$numeric_limits@N@std@@2HB 10039b44     moc_lxbasewin.obj
 0002:00000b48       ?max_exponent@?$numeric_limits@N@std@@2HB 10039b48     moc_lxbasewin.obj
 0002:00000b4c       ?max_exponent10@?$numeric_limits@N@std@@2HB 10039b4c     moc_lxbasewin.obj
 0002:00000b50       ?min_exponent@?$numeric_limits@N@std@@2HB 10039b50     moc_lxbasewin.obj
 0002:00000b54       ?min_exponent10@?$numeric_limits@N@std@@2HB 10039b54     moc_lxbasewin.obj
 0002:00000b58       ?digits@?$numeric_limits@O@std@@2HB 10039b58     moc_lxbasewin.obj
 0002:00000b5c       ?digits10@?$numeric_limits@O@std@@2HB 10039b5c     moc_lxbasewin.obj
 0002:00000b60       ?max_digits10@?$numeric_limits@O@std@@2HB 10039b60     moc_lxbasewin.obj
 0002:00000b64       ?max_exponent@?$numeric_limits@O@std@@2HB 10039b64     moc_lxbasewin.obj
 0002:00000b68       ?max_exponent10@?$numeric_limits@O@std@@2HB 10039b68     moc_lxbasewin.obj
 0002:00000b6c       ?min_exponent@?$numeric_limits@O@std@@2HB 10039b6c     moc_lxbasewin.obj
 0002:00000b70       ?min_exponent10@?$numeric_limits@O@std@@2HB 10039b70     moc_lxbasewin.obj
 0002:00000b74       ?collate@?$_Locbase@H@std@@2HB 10039b74     moc_lxbasewin.obj
 0002:00000b78       ?ctype@?$_Locbase@H@std@@2HB 10039b78     moc_lxbasewin.obj
 0002:00000b7c       ?monetary@?$_Locbase@H@std@@2HB 10039b7c     moc_lxbasewin.obj
 0002:00000b80       ?numeric@?$_Locbase@H@std@@2HB 10039b80     moc_lxbasewin.obj
 0002:00000b84       ?time@?$_Locbase@H@std@@2HB 10039b84     moc_lxbasewin.obj
 0002:00000b88       ?messages@?$_Locbase@H@std@@2HB 10039b88     moc_lxbasewin.obj
 0002:00000b8c       ?all@?$_Locbase@H@std@@2HB 10039b8c     moc_lxbasewin.obj
 0002:00000b90       ?none@?$_Locbase@H@std@@2HB 10039b90     moc_lxbasewin.obj
 0002:00000c84       ?value@?$integral_constant@I$07@std@@2IB 10039c84     moc_lxbasewin.obj
 0002:00000c88       ?value@?$integral_constant@I$03@std@@2IB 10039c88     moc_lxbasewin.obj
 0002:00000c8c       ?has_denorm@_Num_base@std@@2W4float_denorm_style@2@B 10039c8c     moc_lxbasewin.obj
 0002:00000c90       ?has_denorm_loss@_Num_base@std@@2_NB 10039c90     moc_lxbasewin.obj
 0002:00000c91       ?has_infinity@_Num_base@std@@2_NB 10039c91     moc_lxbasewin.obj
 0002:00000c92       ?has_quiet_NaN@_Num_base@std@@2_NB 10039c92     moc_lxbasewin.obj
 0002:00000c93       ?has_signaling_NaN@_Num_base@std@@2_NB 10039c93     moc_lxbasewin.obj
 0002:00000c94       ?is_bounded@_Num_base@std@@2_NB 10039c94     moc_lxbasewin.obj
 0002:00000c95       ?is_exact@_Num_base@std@@2_NB 10039c95     moc_lxbasewin.obj
 0002:00000c96       ?is_iec559@_Num_base@std@@2_NB 10039c96     moc_lxbasewin.obj
 0002:00000c97       ?is_integer@_Num_base@std@@2_NB 10039c97     moc_lxbasewin.obj
 0002:00000c98       ?is_modulo@_Num_base@std@@2_NB 10039c98     moc_lxbasewin.obj
 0002:00000c99       ?is_signed@_Num_base@std@@2_NB 10039c99     moc_lxbasewin.obj
 0002:00000c9a       ?is_specialized@_Num_base@std@@2_NB 10039c9a     moc_lxbasewin.obj
 0002:00000c9b       ?tinyness_before@_Num_base@std@@2_NB 10039c9b     moc_lxbasewin.obj
 0002:00000c9c       ?traps@_Num_base@std@@2_NB 10039c9c     moc_lxbasewin.obj
 0002:00000ca0       ?round_style@_Num_base@std@@2W4float_round_style@2@B 10039ca0     moc_lxbasewin.obj
 0002:00000ca4       ?digits@_Num_base@std@@2HB 10039ca4     moc_lxbasewin.obj
 0002:00000ca8       ?digits10@_Num_base@std@@2HB 10039ca8     moc_lxbasewin.obj
 0002:00000cac       ?max_digits10@_Num_base@std@@2HB 10039cac     moc_lxbasewin.obj
 0002:00000cb0       ?max_exponent@_Num_base@std@@2HB 10039cb0     moc_lxbasewin.obj
 0002:00000cb4       ?max_exponent10@_Num_base@std@@2HB 10039cb4     moc_lxbasewin.obj
 0002:00000cb8       ?min_exponent@_Num_base@std@@2HB 10039cb8     moc_lxbasewin.obj
 0002:00000cbc       ?value@?$integral_constant@I$01@std@@2IB 10039cbc     moc_lxbasewin.obj
 0002:00000cc0       ?min_exponent10@_Num_base@std@@2HB 10039cc0     moc_lxbasewin.obj
 0002:00000cc4       ?radix@_Num_base@std@@2HB  10039cc4     moc_lxbasewin.obj
 0002:00000cc8       ?is_bounded@_Num_int_base@std@@2_NB 10039cc8     moc_lxbasewin.obj
 0002:00000cc9       ?is_exact@_Num_int_base@std@@2_NB 10039cc9     moc_lxbasewin.obj
 0002:00000cca       ?is_integer@_Num_int_base@std@@2_NB 10039cca     moc_lxbasewin.obj
 0002:00000ccb       ?is_modulo@_Num_int_base@std@@2_NB 10039ccb     moc_lxbasewin.obj
 0002:00000ccc       ?is_specialized@_Num_int_base@std@@2_NB 10039ccc     moc_lxbasewin.obj
 0002:00000cd0       ?radix@_Num_int_base@std@@2HB 10039cd0     moc_lxbasewin.obj
 0002:00000cd4       ?has_denorm@_Num_float_base@std@@2W4float_denorm_style@2@B 10039cd4     moc_lxbasewin.obj
 0002:00000cd8       ?value@?$integral_constant@I$00@std@@2IB 10039cd8     moc_lxbasewin.obj
 0002:00000cdc       ?has_denorm_loss@_Num_float_base@std@@2_NB 10039cdc     moc_lxbasewin.obj
 0002:00000cdd       ?has_infinity@_Num_float_base@std@@2_NB 10039cdd     moc_lxbasewin.obj
 0002:00000cde       ?has_quiet_NaN@_Num_float_base@std@@2_NB 10039cde     moc_lxbasewin.obj
 0002:00000cdf       ?has_signaling_NaN@_Num_float_base@std@@2_NB 10039cdf     moc_lxbasewin.obj
 0002:00000ce0       ?is_bounded@_Num_float_base@std@@2_NB 10039ce0     moc_lxbasewin.obj
 0002:00000ce1       ?is_exact@_Num_float_base@std@@2_NB 10039ce1     moc_lxbasewin.obj
 0002:00000ce2       ?is_iec559@_Num_float_base@std@@2_NB 10039ce2     moc_lxbasewin.obj
 0002:00000ce4       ?value@?$_Maximum@$S@std@@2IB 10039ce4     moc_lxbasewin.obj
 0002:00000ce8       ?is_integer@_Num_float_base@std@@2_NB 10039ce8     moc_lxbasewin.obj
 0002:00000ce9       ?is_modulo@_Num_float_base@std@@2_NB 10039ce9     moc_lxbasewin.obj
 0002:00000cea       ?is_signed@_Num_float_base@std@@2_NB 10039cea     moc_lxbasewin.obj
 0002:00000ceb       ?is_specialized@_Num_float_base@std@@2_NB 10039ceb     moc_lxbasewin.obj
 0002:00000cec       ?tinyness_before@_Num_float_base@std@@2_NB 10039cec     moc_lxbasewin.obj
 0002:00000ced       ?traps@_Num_float_base@std@@2_NB 10039ced     moc_lxbasewin.obj
 0002:00000cf0       ?round_style@_Num_float_base@std@@2W4float_round_style@2@B 10039cf0     moc_lxbasewin.obj
 0002:00000cf4       ?radix@_Num_float_base@std@@2HB 10039cf4     moc_lxbasewin.obj
 0002:00000cf8       ?skipws@?$_Iosb@H@std@@2W4_Fmtflags@12@B 10039cf8     moc_lxbasewin.obj
 0002:00000cfc       ?unitbuf@?$_Iosb@H@std@@2W4_Fmtflags@12@B 10039cfc     moc_lxbasewin.obj
 0002:00000d00       ?uppercase@?$_Iosb@H@std@@2W4_Fmtflags@12@B 10039d00     moc_lxbasewin.obj
 0002:00000d04       ?showbase@?$_Iosb@H@std@@2W4_Fmtflags@12@B 10039d04     moc_lxbasewin.obj
 0002:00000d08       ?showpoint@?$_Iosb@H@std@@2W4_Fmtflags@12@B 10039d08     moc_lxbasewin.obj
 0002:00000d0c       ?value@?$integral_constant@I$0A@@std@@2IB 10039d0c     moc_lxbasewin.obj
 0002:00000d10       ?showpos@?$_Iosb@H@std@@2W4_Fmtflags@12@B 10039d10     moc_lxbasewin.obj
 0002:00000d14       ?left@?$_Iosb@H@std@@2W4_Fmtflags@12@B 10039d14     moc_lxbasewin.obj
 0002:00000d18       ?is_signed@?$numeric_limits@D@std@@2_NB 10039d18     moc_lxbasewin.obj
 0002:00000d1c       ?right@?$_Iosb@H@std@@2W4_Fmtflags@12@B 10039d1c     moc_lxbasewin.obj
 0002:00000d20       ?digits@?$numeric_limits@D@std@@2HB 10039d20     moc_lxbasewin.obj
 0002:00000d24       ?internal@?$_Iosb@H@std@@2W4_Fmtflags@12@B 10039d24     moc_lxbasewin.obj
 0002:00000d28       ?digits10@?$numeric_limits@D@std@@2HB 10039d28     moc_lxbasewin.obj
 0002:00000d2c       ?dec@?$_Iosb@H@std@@2W4_Fmtflags@12@B 10039d2c     moc_lxbasewin.obj
 0002:00000d30       ?oct@?$_Iosb@H@std@@2W4_Fmtflags@12@B 10039d30     moc_lxbasewin.obj
 0002:00000d34       ?hex@?$_Iosb@H@std@@2W4_Fmtflags@12@B 10039d34     moc_lxbasewin.obj
 0002:00000d38       ?scientific@?$_Iosb@H@std@@2W4_Fmtflags@12@B 10039d38     moc_lxbasewin.obj
 0002:00000d3c       ?fixed@?$_Iosb@H@std@@2W4_Fmtflags@12@B 10039d3c     moc_lxbasewin.obj
 0002:00000d40       ?hexfloat@?$_Iosb@H@std@@2W4_Fmtflags@12@B 10039d40     moc_lxbasewin.obj
 0002:00000d44       ?boolalpha@?$_Iosb@H@std@@2W4_Fmtflags@12@B 10039d44     moc_lxbasewin.obj
 0002:00000d48       ?_Stdio@?$_Iosb@H@std@@2W4_Fmtflags@12@B 10039d48     moc_lxbasewin.obj
 0002:00000d4c       ?adjustfield@?$_Iosb@H@std@@2W4_Fmtflags@12@B 10039d4c     moc_lxbasewin.obj
 0002:00000d50       ?basefield@?$_Iosb@H@std@@2W4_Fmtflags@12@B 10039d50     moc_lxbasewin.obj
 0002:00000d54       ?is_signed@?$numeric_limits@G@std@@2_NB 10039d54     moc_lxbasewin.obj
 0002:00000d58       ?floatfield@?$_Iosb@H@std@@2W4_Fmtflags@12@B 10039d58     moc_lxbasewin.obj
 0002:00000d5c       ?digits@?$numeric_limits@G@std@@2HB 10039d5c     moc_lxbasewin.obj
 0002:00000d60       ?goodbit@?$_Iosb@H@std@@2W4_Iostate@12@B 10039d60     moc_lxbasewin.obj
 0002:00000d64       ?digits10@?$numeric_limits@G@std@@2HB 10039d64     moc_lxbasewin.obj
 0002:00000d68       ?eofbit@?$_Iosb@H@std@@2W4_Iostate@12@B 10039d68     moc_lxbasewin.obj
 0002:00000d6c       ?failbit@?$_Iosb@H@std@@2W4_Iostate@12@B 10039d6c     moc_lxbasewin.obj
 0002:00000d70       ?value@?$integral_constant@_N$0A@@std@@2_NB 10039d70     moc_lxbasewin.obj
 0002:00000d74       ?badbit@?$_Iosb@H@std@@2W4_Iostate@12@B 10039d74     moc_lxbasewin.obj
 0002:00000d78       ?_Hardfail@?$_Iosb@H@std@@2W4_Iostate@12@B 10039d78     moc_lxbasewin.obj
 0002:00000d7c       ?in@?$_Iosb@H@std@@2W4_Openmode@12@B 10039d7c     moc_lxbasewin.obj
 0002:00000d80       ?out@?$_Iosb@H@std@@2W4_Openmode@12@B 10039d80     moc_lxbasewin.obj
 0002:00000d84       ?value@?$integral_constant@_N$00@std@@2_NB 10039d84     moc_lxbasewin.obj
 0002:00000d88       ?ate@?$_Iosb@H@std@@2W4_Openmode@12@B 10039d88     moc_lxbasewin.obj
 0002:00000d8c       ?app@?$_Iosb@H@std@@2W4_Openmode@12@B 10039d8c     moc_lxbasewin.obj
 0002:00000d90       ?trunc@?$_Iosb@H@std@@2W4_Openmode@12@B 10039d90     moc_lxbasewin.obj
 0002:00000d94       ?_Nocreate@?$_Iosb@H@std@@2W4_Openmode@12@B 10039d94     moc_lxbasewin.obj
 0002:00000d98       ?is_modulo@?$numeric_limits@_N@std@@2_NB 10039d98     moc_lxbasewin.obj
 0002:00000d9c       ?_Noreplace@?$_Iosb@H@std@@2W4_Openmode@12@B 10039d9c     moc_lxbasewin.obj
 0002:00000da0       ?is_signed@?$numeric_limits@_N@std@@2_NB 10039da0     moc_lxbasewin.obj
 0002:00000da4       ?binary@?$_Iosb@H@std@@2W4_Openmode@12@B 10039da4     moc_lxbasewin.obj
 0002:00000da8       ?digits@?$numeric_limits@_N@std@@2HB 10039da8     moc_lxbasewin.obj
 0002:00000dac       ?digits10@?$numeric_limits@_N@std@@2HB 10039dac     moc_lxbasewin.obj
 0002:00000db0       ?beg@?$_Iosb@H@std@@2W4_Seekdir@12@B 10039db0     moc_lxbasewin.obj
 0002:00000db4       ?cur@?$_Iosb@H@std@@2W4_Seekdir@12@B 10039db4     moc_lxbasewin.obj
 0002:00000db8       ?end@?$_Iosb@H@std@@2W4_Seekdir@12@B 10039db8     moc_lxbasewin.obj
 0002:00000dbc       ?is_signed@?$numeric_limits@C@std@@2_NB 10039dbc     moc_lxbasewin.obj
 0002:00000dc0       ?digits@?$numeric_limits@C@std@@2HB 10039dc0     moc_lxbasewin.obj
 0002:00000dc4       ?digits10@?$numeric_limits@C@std@@2HB 10039dc4     moc_lxbasewin.obj
 0002:00000dc8       ?is_signed@?$numeric_limits@E@std@@2_NB 10039dc8     moc_lxbasewin.obj
 0002:00000dcc       ?digits@?$numeric_limits@E@std@@2HB 10039dcc     moc_lxbasewin.obj
 0002:00000dd0       ?digits10@?$numeric_limits@E@std@@2HB 10039dd0     moc_lxbasewin.obj
 0002:00000dd4       ?is_signed@?$numeric_limits@F@std@@2_NB 10039dd4     moc_lxbasewin.obj
 0002:00000dd8       ?digits@?$numeric_limits@F@std@@2HB 10039dd8     moc_lxbasewin.obj
 0002:00000ddc       ?digits10@?$numeric_limits@F@std@@2HB 10039ddc     moc_lxbasewin.obj
 0002:00000de0       ?is_signed@?$numeric_limits@H@std@@2_NB 10039de0     moc_lxbasewin.obj
 0002:00000de4       ?digits@?$numeric_limits@H@std@@2HB 10039de4     moc_lxbasewin.obj
 0002:00000de8       ?digits10@?$numeric_limits@H@std@@2HB 10039de8     moc_lxbasewin.obj
 0002:00000dec       ?value@?$integral_constant@_N$0A@@QtPrivate@@2_NB 10039dec     moc_lxbasewin.obj
 0002:00000ded       ?is_signed@?$numeric_limits@I@std@@2_NB 10039ded     moc_lxbasewin.obj
 0002:00000dee       ?value@?$integral_constant@_N$00@QtPrivate@@2_NB 10039dee     moc_lxbasewin.obj
 0002:00000df0       ?digits@?$numeric_limits@I@std@@2HB 10039df0     moc_lxbasewin.obj
 0002:00000df4       ?digits10@?$numeric_limits@I@std@@2HB 10039df4     moc_lxbasewin.obj
 0002:00000df8       ?is_signed@?$numeric_limits@J@std@@2_NB 10039df8     moc_lxbasewin.obj
 0002:00000dfc       ?digits@?$numeric_limits@J@std@@2HB 10039dfc     moc_lxbasewin.obj
 0002:00000e00       ?digits10@?$numeric_limits@J@std@@2HB 10039e00     moc_lxbasewin.obj
 0002:00000e04       ??_C@_00CNPNBAHC@?$AA@     10039e04     moc_lxbasewin.obj
 0002:00000e0c       ??_7error_category@std@@6B@ 10039e0c     moc_lxbasewin.obj
 0002:00000e30       ??_7_Generic_error_category@std@@6B@ 10039e30     moc_lxbasewin.obj
 0002:00000e50       ??_C@_07DCLBNMLN@generic?$AA@ 10039e50     moc_lxbasewin.obj
 0002:00000e5c       ??_C@_0O@BFJCFAAK@unknown?5error?$AA@ 10039e5c     moc_lxbasewin.obj
 0002:00000e70       ??_7_Iostream_error_category@std@@6B@ 10039e70     moc_lxbasewin.obj
 0002:00000e90       ??_C@_08LLGCOLLL@iostream?$AA@ 10039e90     moc_lxbasewin.obj
 0002:00000e9c       ??_C@_0BG@PADBLCHM@iostream?5stream?5error?$AA@ 10039e9c     moc_lxbasewin.obj
 0002:00000ebc       ??_7_System_error_category@std@@6B@ 10039ebc     moc_lxbasewin.obj
 0002:00000edc       ??_C@_06FHFOAHML@system?$AA@ 10039edc     moc_lxbasewin.obj
 0002:00000ee4       ??_C@_0BA@JFNIOLAK@string?5too?5long?$AA@ 10039ee4     moc_lxbasewin.obj
 0002:00000ef8       ??_C@_0BI@CFPLBAOH@invalid?5string?5position?$AA@ 10039ef8     moc_lxbasewin.obj
 0002:00001330       ?staticMetaObject@LxCoreApplication@@2UQMetaObject@@B 1003a330     moc_lxcoreapplication.obj
 0002:00001424       ??_7LxCoreApplicationPrivate@@6B@ 1003a424     moc_lxcoreapplication.obj
 0002:000014d8       ?staticMetaObject@LxDialogBase@@2UQMetaObject@@B 1003a4d8     moc_lxdialogoperate.obj
 0002:000020cc       ??_C@_0BA@LBGHHCLA@QNetworkRequest?$AA@ 1003b0cc     moc_lxdialogoperate.obj
 0002:00002378       ?staticMetaObject@LxDir@@2UQMetaObject@@B 1003b378     moc_lxdir.obj
 0002:00002b9c       ??_C@_0BM@FKEGNPGP@QNetworkReply?3?3NetworkError?$AA@ 1003bb9c     moc_lxdownloadmanager.obj
 0002:00002bc0       ?staticMetaObject@LxFile@@2UQMetaObject@@B 1003bbc0     moc_lxfile.obj
 0002:0000464c       ??_SQNetworkAccessManager@@6B@ 1003d64c     lxdownloadmanager.obj
 0002:0000468c       ??_SQNetworkDiskCache@@6B@ 1003d68c     lxdownloadmanager.obj
 0002:000046f0       ??_7LxDownloadItem@@6B@    1003d6f0     lxdownloadmanager.obj
 0002:0000472c       ??_7LxDownloadManager@@6B@ 1003d72c     lxdownloadmanager.obj
 0002:0000499c       ??_SQAction@@6B@           1003d99c     lxsystemtray.obj
 0002:000049d8       ??_SQSystemTrayIcon@@6B@   1003d9d8     lxsystemtray.obj
 0002:00004a14       ??_SQMenu@@6BQObject@@@    1003da14     lxsystemtray.obj
 0002:00004af0       ??_SQMenu@@6BQPaintDevice@@@ 1003daf0     lxsystemtray.obj
 0002:00004b18       ??_7LxSystemTray@@6BQObject@@@ 1003db18     lxsystemtray.obj
 0002:00004bf4       ??_7LxSystemTray@@6BQPaintDevice@@@ 1003dbf4     lxsystemtray.obj
 0002:00004d00       ??_7LxBaseWin@@6BQObject@@@ 1003dd00     lxbasewin.obj
 0002:00004de4       ??_7LxBaseWin@@6BQPaintDevice@@@ 1003dde4     lxbasewin.obj
 0002:00005024       ??_7LxMainWindow@@6BQObject@@@ 1003e024     lxmainwin.obj
 0002:00005108       ??_7LxMainWindow@@6BQPaintDevice@@@ 1003e108     lxmainwin.obj
 0002:000051c4       ??_7LxNetWorkCookies@@6B@  1003e1c4     lxnetworkcookie.obj
 0002:00005218       ??_C@_0BM@NMJKDPPO@invalid?5vector?$DMT?$DO?5subscript?$AA@ 1003e218     lxnetworkcookie.obj
 0002:0000523c       ??_C@_0BD@OLBABOEK@vector?$DMT?$DO?5too?5long?$AA@ 1003e23c     lxnetworkcookie.obj
 0002:000054b8       ??_7LxWebPage@@6B@         1003e4b8     lxwebpage.obj
 0002:000055d4       ??_7LxWebPluginFactory@@6B@ 1003e5d4     lxwebpluginfactory.obj
 0002:00005624       ??_C@_0O@HLBELJFD@LomoXTeam?11?40?$AA@ 1003e624     lxwebpluginfactory.obj
 0002:00005634       ??_C@_02KEGNLNML@?0?5?$AA@ 1003e634     lxwebpluginfactory.obj
 0002:00005644       ??_7LxCoreApplication@@6B@ 1003e644     lxcoreapplication.obj
 0002:00005ba4       ??_SQMovie@@6B@            1003eba4     lxdialogoperate.obj
 0002:00005be4       ??_SQBoxLayout@@6BQObject@@@ 1003ebe4     lxdialogoperate.obj
 0002:00005c3c       ??_SQBoxLayout@@6BQLayoutItem@@@ 1003ec3c     lxdialogoperate.obj
 0002:00005c94       ??_SQLabel@@6BQObject@@@   1003ec94     lxdialogoperate.obj
 0002:00005d70       ??_SQLabel@@6BQPaintDevice@@@ 1003ed70     lxdialogoperate.obj
 0002:00005d98       ??_7LxDialogBase@@6B@      1003ed98     lxdialogoperate.obj
 0002:00005e74       ??_SQPrintPreviewDialog@@6BQObject@@@ 1003ee74     lxdialogoperate.obj
 0002:00005f68       ??_SQPrintPreviewDialog@@6BQPaintDevice@@@ 1003ef68     lxdialogoperate.obj
 0002:00005f90       __real@0000000000000000    1003ef90     lxdialogoperate.obj
 0002:00006004       ??_7LxDialogs@@6B@         1003f004     lxdialogs.obj
 0002:00006058       ??_C@_07FGAOOBMN@http?3?1?1?$AA@ 1003f058     lxdialogs.obj
 0002:00006064       ??_C@_08MFLLBFBE@https?3?1?1?$AA@ 1003f064     lxdialogs.obj
 0002:00006070       ??_C@_08NPMJDGGI@file?3?1?1?1?$AA@ 1003f070     lxdialogs.obj
 0002:00006080       ??_7LxDir@@6B@             1003f080     lxdir.obj
 0002:000060d0       ??_7LxFile@@6B@            1003f0d0     lxfile.obj
 0002:00006160       ??_7LxLibManager@@6B@      1003f160     lxlibmanager.obj
 0002:00006230       ??_SQLibrary@@6B@          1003f230     lxlibrary.obj
 0002:0000626c       ??_7LxLibrary@@6B@         1003f26c     lxlibrary.obj
 0002:000062f4       ??_7LxOperate@@6B@         1003f2f4     lxoperate.obj
 0002:00006330       ??_7LxSqlQuery@@6B@        1003f330     lxsqlquery.obj
 0002:00006554       ??_7LxOption@@6B@          1003f554     lxoption.obj
 0002:00006744       ??_7LxHttp@@6B@            1003f744     lxhttp.obj
 0002:00006780       ??_7LxResources@@6B@       1003f780     lxresources.obj
 0002:000067bc       ??_7type_info@@6B@         1003f7bc     MSVCRT:ti_inst.obj
 0002:000067c0       __pRawDllMain              1003f7c0     MSVCRT:crtdll.obj
 0002:000067c0       __pDefaultRawDllMain       1003f7c0     MSVCRT:crtdll.obj
 0002:000067cc       ?ProcessDetach@NativeDll@<CrtImplementationDetails>@@0IB 1003f7cc     MSVCRT:initsect.obj
 0002:000067d0       ?ProcessAttach@NativeDll@<CrtImplementationDetails>@@0IB 1003f7d0     MSVCRT:initsect.obj
 0002:000067d4       ?ThreadAttach@NativeDll@<CrtImplementationDetails>@@0IB 1003f7d4     MSVCRT:initsect.obj
 0002:000067d8       ?ThreadDetach@NativeDll@<CrtImplementationDetails>@@0IB 1003f7d8     MSVCRT:initsect.obj
 0002:000067dc       ?ProcessVerifier@NativeDll@<CrtImplementationDetails>@@0IB 1003f7dc     MSVCRT:initsect.obj
 0002:000067e0       __load_config_used         1003f7e0     MSVCRT:loadcfg.obj
 0002:00006b84       ??_R4error_category@std@@6B@ 1003fb84     moc_lxbasewin.obj
 0002:00006b9c       ??_R3error_category@std@@8 1003fb9c     moc_lxbasewin.obj
 0002:00006bb0       ??_R2error_category@std@@8 1003fbb0     moc_lxbasewin.obj
 0002:00006bb8       ??_R1A@?0A@EA@error_category@std@@8 1003fbb8     moc_lxbasewin.obj
 0002:00006bdc       ??_R4_Generic_error_category@std@@6B@ 1003fbdc     moc_lxbasewin.obj
 0002:00006bf4       ??_R3_Generic_error_category@std@@8 1003fbf4     moc_lxbasewin.obj
 0002:00006c08       ??_R2_Generic_error_category@std@@8 1003fc08     moc_lxbasewin.obj
 0002:00006c14       ??_R1A@?0A@EA@_Generic_error_category@std@@8 1003fc14     moc_lxbasewin.obj
 0002:00006c38       ??_R4_Iostream_error_category@std@@6B@ 1003fc38     moc_lxbasewin.obj
 0002:00006c50       ??_R3_Iostream_error_category@std@@8 1003fc50     moc_lxbasewin.obj
 0002:00006c64       ??_R2_Iostream_error_category@std@@8 1003fc64     moc_lxbasewin.obj
 0002:00006c74       ??_R1A@?0A@EA@_Iostream_error_category@std@@8 1003fc74     moc_lxbasewin.obj
 0002:00006c98       ??_R4_System_error_category@std@@6B@ 1003fc98     moc_lxbasewin.obj
 0002:00006cb0       ??_R3_System_error_category@std@@8 1003fcb0     moc_lxbasewin.obj
 0002:00006cc4       ??_R2_System_error_category@std@@8 1003fcc4     moc_lxbasewin.obj
 0002:00006cd4       ??_R1A@?0A@EA@_System_error_category@std@@8 1003fcd4     moc_lxbasewin.obj
 0002:00006cf8       ??_R1A@?0A@EA@QObject@@8   1003fcf8     moc_lxcoreapplication.obj
 0002:00006d1c       ??_R3QObject@@8            1003fd1c     moc_lxcoreapplication.obj
 0002:00006d30       ??_R2QObject@@8            1003fd30     moc_lxcoreapplication.obj
 0002:00006d38       ??_R4LxCoreApplicationPrivate@@6B@ 1003fd38     moc_lxcoreapplication.obj
 0002:00006d50       ??_R3LxCoreApplicationPrivate@@8 1003fd50     moc_lxcoreapplication.obj
 0002:00006d64       ??_R2LxCoreApplicationPrivate@@8 1003fd64     moc_lxcoreapplication.obj
 0002:00006d70       ??_R1A@?0A@EA@LxCoreApplicationPrivate@@8 1003fd70     moc_lxcoreapplication.obj
 0002:00006d94       ??_R4QNetworkAccessManager@@6B@ 1003fd94     lxdownloadmanager.obj
 0002:00006dac       ??_R3QNetworkAccessManager@@8 1003fdac     lxdownloadmanager.obj
 0002:00006dc0       ??_R2QNetworkAccessManager@@8 1003fdc0     lxdownloadmanager.obj
 0002:00006dcc       ??_R1A@?0A@EA@QNetworkAccessManager@@8 1003fdcc     lxdownloadmanager.obj
 0002:00006df0       ??_R4QNetworkDiskCache@@6B@ 1003fdf0     lxdownloadmanager.obj
 0002:00006e08       ??_R3QNetworkDiskCache@@8  1003fe08     lxdownloadmanager.obj
 0002:00006e1c       ??_R2QNetworkDiskCache@@8  1003fe1c     lxdownloadmanager.obj
 0002:00006e2c       ??_R1A@?0A@EA@QNetworkDiskCache@@8 1003fe2c     lxdownloadmanager.obj
 0002:00006e50       ??_R1A@?0A@EA@QAbstractNetworkCache@@8 1003fe50     lxdownloadmanager.obj
 0002:00006e74       ??_R3QAbstractNetworkCache@@8 1003fe74     lxdownloadmanager.obj
 0002:00006e88       ??_R2QAbstractNetworkCache@@8 1003fe88     lxdownloadmanager.obj
 0002:00006e94       ??_R4LxDownloadItem@@6B@   1003fe94     lxdownloadmanager.obj
 0002:00006eac       ??_R3LxDownloadItem@@8     1003feac     lxdownloadmanager.obj
 0002:00006ec0       ??_R2LxDownloadItem@@8     1003fec0     lxdownloadmanager.obj
 0002:00006ecc       ??_R1A@?0A@EA@LxDownloadItem@@8 1003fecc     lxdownloadmanager.obj
 0002:00006ef0       ??_R4LxDownloadManager@@6B@ 1003fef0     lxdownloadmanager.obj
 0002:00006f08       ??_R3LxDownloadManager@@8  1003ff08     lxdownloadmanager.obj
 0002:00006f1c       ??_R2LxDownloadManager@@8  1003ff1c     lxdownloadmanager.obj
 0002:00006f28       ??_R1A@?0A@EA@LxDownloadManager@@8 1003ff28     lxdownloadmanager.obj
 0002:00006f4c       ??_R4QAction@@6B@          1003ff4c     lxsystemtray.obj
 0002:00006f64       ??_R3QAction@@8            1003ff64     lxsystemtray.obj
 0002:00006f78       ??_R2QAction@@8            1003ff78     lxsystemtray.obj
 0002:00006f84       ??_R1A@?0A@EA@QAction@@8   1003ff84     lxsystemtray.obj
 0002:00006fa8       ??_R4QMenu@@6BQObject@@@   1003ffa8     lxsystemtray.obj
 0002:00006fc0       ??_R3QMenu@@8              1003ffc0     lxsystemtray.obj
 0002:00006fd4       ??_R2QMenu@@8              1003ffd4     lxsystemtray.obj
 0002:00006fe8       ??_R1A@?0A@EA@QMenu@@8     1003ffe8     lxsystemtray.obj
 0002:0000700c       ??_R1A@?0A@EA@QWidget@@8   1004000c     lxsystemtray.obj
 0002:00007030       ??_R3QWidget@@8            10040030     lxsystemtray.obj
 0002:00007044       ??_R2QWidget@@8            10040044     lxsystemtray.obj
 0002:00007054       ??_R17?0A@EA@QPaintDevice@@8 10040054     lxsystemtray.obj
 0002:00007078       ??_R3QPaintDevice@@8       10040078     lxsystemtray.obj
 0002:0000708c       ??_R2QPaintDevice@@8       1004008c     lxsystemtray.obj
 0002:00007094       ??_R1A@?0A@EA@QPaintDevice@@8 10040094     lxsystemtray.obj
 0002:000070b8       ??_R4QMenu@@6BQPaintDevice@@@ 100400b8     lxsystemtray.obj
 0002:000070d0       ??_R4QSystemTrayIcon@@6B@  100400d0     lxsystemtray.obj
 0002:000070e8       ??_R3QSystemTrayIcon@@8    100400e8     lxsystemtray.obj
 0002:000070fc       ??_R2QSystemTrayIcon@@8    100400fc     lxsystemtray.obj
 0002:00007108       ??_R1A@?0A@EA@QSystemTrayIcon@@8 10040108     lxsystemtray.obj
 0002:0000712c       ??_R4LxSystemTray@@6BQObject@@@ 1004012c     lxsystemtray.obj
 0002:00007144       ??_R3LxSystemTray@@8       10040144     lxsystemtray.obj
 0002:00007158       ??_R2LxSystemTray@@8       10040158     lxsystemtray.obj
 0002:0000716c       ??_R1A@?0A@EA@LxSystemTray@@8 1004016c     lxsystemtray.obj
 0002:00007190       ??_R4LxSystemTray@@6BQPaintDevice@@@ 10040190     lxsystemtray.obj
 0002:000071a8       ??_R4LxBaseWin@@6BQObject@@@ 100401a8     lxbasewin.obj
 0002:000071c0       ??_R3LxBaseWin@@8          100401c0     lxbasewin.obj
 0002:000071d4       ??_R2LxBaseWin@@8          100401d4     lxbasewin.obj
 0002:000071f0       ??_R1A@?0A@EA@LxBaseWin@@8 100401f0     lxbasewin.obj
 0002:00007214       ??_R1A@?0A@EA@QWebView@@8  10040214     lxbasewin.obj
 0002:00007238       ??_R3QWebView@@8           10040238     lxbasewin.obj
 0002:0000724c       ??_R2QWebView@@8           1004024c     lxbasewin.obj
 0002:00007260       ??_R4LxBaseWin@@6BQPaintDevice@@@ 10040260     lxbasewin.obj
 0002:00007278       ??_R4LxMainWindow@@6BQObject@@@ 10040278     lxmainwin.obj
 0002:00007290       ??_R3LxMainWindow@@8       10040290     lxmainwin.obj
 0002:000072a4       ??_R2LxMainWindow@@8       100402a4     lxmainwin.obj
 0002:000072c0       ??_R1A@?0A@EA@LxMainWindow@@8 100402c0     lxmainwin.obj
 0002:000072e4       ??_R4LxMainWindow@@6BQPaintDevice@@@ 100402e4     lxmainwin.obj
 0002:000072fc       ??_R4LxNetWorkCookies@@6B@ 100402fc     lxnetworkcookie.obj
 0002:00007314       ??_R3LxNetWorkCookies@@8   10040314     lxnetworkcookie.obj
 0002:00007328       ??_R2LxNetWorkCookies@@8   10040328     lxnetworkcookie.obj
 0002:00007338       ??_R1A@?0A@EA@LxNetWorkCookies@@8 10040338     lxnetworkcookie.obj
 0002:0000735c       ??_R1A@?0A@EA@QNetworkCookieJar@@8 1004035c     lxnetworkcookie.obj
 0002:00007380       ??_R3QNetworkCookieJar@@8  10040380     lxnetworkcookie.obj
 0002:00007394       ??_R2QNetworkCookieJar@@8  10040394     lxnetworkcookie.obj
 0002:000073a0       ??_R4LxWebPage@@6B@        100403a0     lxwebpage.obj
 0002:000073b8       ??_R3LxWebPage@@8          100403b8     lxwebpage.obj
 0002:000073cc       ??_R2LxWebPage@@8          100403cc     lxwebpage.obj
 0002:000073dc       ??_R1A@?0A@EA@LxWebPage@@8 100403dc     lxwebpage.obj
 0002:00007400       ??_R1A@?0A@EA@QWebPage@@8  10040400     lxwebpage.obj
 0002:00007424       ??_R3QWebPage@@8           10040424     lxwebpage.obj
 0002:00007438       ??_R2QWebPage@@8           10040438     lxwebpage.obj
 0002:00007444       ??_R4LxWebPluginFactory@@6B@ 10040444     lxwebpluginfactory.obj
 0002:0000745c       ??_R3LxWebPluginFactory@@8 1004045c     lxwebpluginfactory.obj
 0002:00007470       ??_R2LxWebPluginFactory@@8 10040470     lxwebpluginfactory.obj
 0002:00007480       ??_R1A@?0A@EA@LxWebPluginFactory@@8 10040480     lxwebpluginfactory.obj
 0002:000074a4       ??_R1A@?0A@EA@QWebPluginFactory@@8 100404a4     lxwebpluginfactory.obj
 0002:000074c8       ??_R3QWebPluginFactory@@8  100404c8     lxwebpluginfactory.obj
 0002:000074dc       ??_R2QWebPluginFactory@@8  100404dc     lxwebpluginfactory.obj
 0002:000074e8       ??_R4LxCoreApplication@@6B@ 100404e8     lxcoreapplication.obj
 0002:00007500       ??_R3LxCoreApplication@@8  10040500     lxcoreapplication.obj
 0002:00007514       ??_R2LxCoreApplication@@8  10040514     lxcoreapplication.obj
 0002:00007524       ??_R1A@?0A@EA@LxCoreApplication@@8 10040524     lxcoreapplication.obj
 0002:00007548       ??_R1A@?0A@EA@LxOperate@@8 10040548     lxcoreapplication.obj
 0002:0000756c       ??_R3LxOperate@@8          1004056c     lxcoreapplication.obj
 0002:00007580       ??_R2LxOperate@@8          10040580     lxcoreapplication.obj
 0002:0000758c       ??_R4QMovie@@6B@           1004058c     lxdialogoperate.obj
 0002:000075a4       ??_R3QMovie@@8             100405a4     lxdialogoperate.obj
 0002:000075b8       ??_R2QMovie@@8             100405b8     lxdialogoperate.obj
 0002:000075c4       ??_R1A@?0A@EA@QMovie@@8    100405c4     lxdialogoperate.obj
 0002:000075e8       ??_R4QLabel@@6BQObject@@@  100405e8     lxdialogoperate.obj
 0002:00007600       ??_R3QLabel@@8             10040600     lxdialogoperate.obj
 0002:00007614       ??_R2QLabel@@8             10040614     lxdialogoperate.obj
 0002:00007630       ??_R1A@?0A@EA@QLabel@@8    10040630     lxdialogoperate.obj
 0002:00007654       ??_R1A@?0A@EA@QFrame@@8    10040654     lxdialogoperate.obj
 0002:00007678       ??_R3QFrame@@8             10040678     lxdialogoperate.obj
 0002:0000768c       ??_R2QFrame@@8             1004068c     lxdialogoperate.obj
 0002:000076a0       ??_R4QLabel@@6BQPaintDevice@@@ 100406a0     lxdialogoperate.obj
 0002:000076b8       ??_R4QBoxLayout@@6BQObject@@@ 100406b8     lxdialogoperate.obj
 0002:000076d0       ??_R3QBoxLayout@@8         100406d0     lxdialogoperate.obj
 0002:000076e4       ??_R2QBoxLayout@@8         100406e4     lxdialogoperate.obj
 0002:000076f8       ??_R1A@?0A@EA@QBoxLayout@@8 100406f8     lxdialogoperate.obj
 0002:0000771c       ??_R1A@?0A@EA@QLayout@@8   1004071c     lxdialogoperate.obj
 0002:00007740       ??_R3QLayout@@8            10040740     lxdialogoperate.obj
 0002:00007754       ??_R2QLayout@@8            10040754     lxdialogoperate.obj
 0002:00007764       ??_R17?0A@EA@QLayoutItem@@8 10040764     lxdialogoperate.obj
 0002:00007788       ??_R3QLayoutItem@@8        10040788     lxdialogoperate.obj
 0002:0000779c       ??_R2QLayoutItem@@8        1004079c     lxdialogoperate.obj
 0002:000077a4       ??_R1A@?0A@EA@QLayoutItem@@8 100407a4     lxdialogoperate.obj
 0002:000077c8       ??_R4QBoxLayout@@6BQLayoutItem@@@ 100407c8     lxdialogoperate.obj
 0002:000077e0       ??_R4LxDialogBase@@6B@     100407e0     lxdialogoperate.obj
 0002:000077f8       ??_R3LxDialogBase@@8       100407f8     lxdialogoperate.obj
 0002:0000780c       ??_R2LxDialogBase@@8       1004080c     lxdialogoperate.obj
 0002:0000781c       ??_R1A@?0A@EA@LxDialogBase@@8 1004081c     lxdialogoperate.obj
 0002:00007840       ??_R4QPrintPreviewDialog@@6BQObject@@@ 10040840     lxdialogoperate.obj
 0002:00007858       ??_R3QPrintPreviewDialog@@8 10040858     lxdialogoperate.obj
 0002:0000786c       ??_R2QPrintPreviewDialog@@8 1004086c     lxdialogoperate.obj
 0002:00007888       ??_R1A@?0A@EA@QPrintPreviewDialog@@8 10040888     lxdialogoperate.obj
 0002:000078ac       ??_R1A@?0A@EA@QDialog@@8   100408ac     lxdialogoperate.obj
 0002:000078d0       ??_R3QDialog@@8            100408d0     lxdialogoperate.obj
 0002:000078e4       ??_R2QDialog@@8            100408e4     lxdialogoperate.obj
 0002:000078f8       ??_R4QPrintPreviewDialog@@6BQPaintDevice@@@ 100408f8     lxdialogoperate.obj
 0002:00007910       ??_R4LxDialogs@@6B@        10040910     lxdialogs.obj
 0002:00007928       ??_R3LxDialogs@@8          10040928     lxdialogs.obj
 0002:0000793c       ??_R2LxDialogs@@8          1004093c     lxdialogs.obj
 0002:00007948       ??_R1A@?0A@EA@LxDialogs@@8 10040948     lxdialogs.obj
 0002:0000796c       ??_R4LxDir@@6B@            1004096c     lxdir.obj
 0002:00007984       ??_R3LxDir@@8              10040984     lxdir.obj
 0002:00007998       ??_R2LxDir@@8              10040998     lxdir.obj
 0002:000079a8       ??_R1A@?0A@EA@LxDir@@8     100409a8     lxdir.obj
 0002:000079cc       ??_R4LxFile@@6B@           100409cc     lxfile.obj
 0002:000079e4       ??_R3LxFile@@8             100409e4     lxfile.obj
 0002:000079f8       ??_R2LxFile@@8             100409f8     lxfile.obj
 0002:00007a08       ??_R1A@?0A@EA@LxFile@@8    10040a08     lxfile.obj
 0002:00007a2c       ??_R4LxLibManager@@6B@     10040a2c     lxlibmanager.obj
 0002:00007a44       ??_R3LxLibManager@@8       10040a44     lxlibmanager.obj
 0002:00007a58       ??_R2LxLibManager@@8       10040a58     lxlibmanager.obj
 0002:00007a64       ??_R1A@?0A@EA@LxLibManager@@8 10040a64     lxlibmanager.obj
 0002:00007a88       ??_R4QLibrary@@6B@         10040a88     lxlibrary.obj
 0002:00007aa0       ??_R3QLibrary@@8           10040aa0     lxlibrary.obj
 0002:00007ab4       ??_R2QLibrary@@8           10040ab4     lxlibrary.obj
 0002:00007ac0       ??_R1A@?0A@EA@QLibrary@@8  10040ac0     lxlibrary.obj
 0002:00007ae4       ??_R4LxLibrary@@6B@        10040ae4     lxlibrary.obj
 0002:00007afc       ??_R3LxLibrary@@8          10040afc     lxlibrary.obj
 0002:00007b10       ??_R2LxLibrary@@8          10040b10     lxlibrary.obj
 0002:00007b1c       ??_R1A@?0A@EA@LxLibrary@@8 10040b1c     lxlibrary.obj
 0002:00007b40       ??_R4LxOperate@@6B@        10040b40     lxoperate.obj
 0002:00007b58       ??_R4LxSqlQuery@@6B@       10040b58     lxsqlquery.obj
 0002:00007b70       ??_R3LxSqlQuery@@8         10040b70     lxsqlquery.obj
 0002:00007b84       ??_R2LxSqlQuery@@8         10040b84     lxsqlquery.obj
 0002:00007b90       ??_R1A@?0A@EA@LxSqlQuery@@8 10040b90     lxsqlquery.obj
 0002:00007bb4       ??_R4LxOption@@6B@         10040bb4     lxoption.obj
 0002:00007bcc       ??_R3LxOption@@8           10040bcc     lxoption.obj
 0002:00007be0       ??_R2LxOption@@8           10040be0     lxoption.obj
 0002:00007bec       ??_R1A@?0A@EA@LxOption@@8  10040bec     lxoption.obj
 0002:00007c10       ??_R4LxHttp@@6B@           10040c10     lxhttp.obj
 0002:00007c28       ??_R3LxHttp@@8             10040c28     lxhttp.obj
 0002:00007c3c       ??_R2LxHttp@@8             10040c3c     lxhttp.obj
 0002:00007c48       ??_R1A@?0A@EA@LxHttp@@8    10040c48     lxhttp.obj
 0002:00007c6c       ??_R4LxResources@@6B@      10040c6c     lxresources.obj
 0002:00007c84       ??_R3LxResources@@8        10040c84     lxresources.obj
 0002:00007c98       ??_R2LxResources@@8        10040c98     lxresources.obj
 0002:00007ca4       ??_R1A@?0A@EA@LxResources@@8 10040ca4     lxresources.obj
 0002:00007cc8       ??_R4type_info@@6B@        10040cc8     MSVCRT:ti_inst.obj
 0002:00007cdc       ??_R3type_info@@8          10040cdc     MSVCRT:ti_inst.obj
 0002:00007cec       ??_R2type_info@@8          10040cec     MSVCRT:ti_inst.obj
 0002:00007cf4       ??_R1A@?0A@EA@type_info@@8 10040cf4     MSVCRT:ti_inst.obj
 0002:00007ea0       ___safe_se_handler_table   10040ea0     <linker-defined>
 0002:0000833c       ___rtc_iaa                 1004133c     MSVCRT:initsect.obj
 0002:00008440       ___rtc_izz                 10041440     MSVCRT:initsect.obj
 0002:00008544       ___rtc_taa                 10041544     MSVCRT:initsect.obj
 0002:00008648       ___rtc_tzz                 10041648     MSVCRT:initsect.obj
 0003:00000004       ___security_cookie         1004b004     MSVCRT:gs_cookie.obj
 0003:00000008       ___security_cookie_complement 1004b008     MSVCRT:gs_cookie.obj
 0003:00000010       ___native_dllmain_reason   1004b010     MSVCRT:natstart.obj
 0003:00000118       ??_R0?AVerror_category@std@@@8 1004b118     moc_lxbasewin.obj
 0003:00000140       ??_R0?AV_Generic_error_category@std@@@8 1004b140     moc_lxbasewin.obj
 0003:00000174       ??_R0?AV_Iostream_error_category@std@@@8 1004b174     moc_lxbasewin.obj
 0003:000001a8       ??_R0?AV_System_error_category@std@@@8 1004b1a8     moc_lxbasewin.obj
 0003:000001dc       ??_R0?AVQObject@@@8        1004b1dc     moc_lxcoreapplication.obj
 0003:000001f8       ??_R0?AVLxCoreApplicationPrivate@@@8 1004b1f8     moc_lxcoreapplication.obj
 0003:00000228       ??_R0?AVQNetworkAccessManager@@@8 1004b228     lxdownloadmanager.obj
 0003:00000254       ??_R0?AVQNetworkDiskCache@@@8 1004b254     lxdownloadmanager.obj
 0003:0000027c       ??_R0?AVQAbstractNetworkCache@@@8 1004b27c     lxdownloadmanager.obj
 0003:000002a8       ??_R0?AVLxDownloadItem@@@8 1004b2a8     lxdownloadmanager.obj
 0003:000002cc       ??_R0?AVLxDownloadManager@@@8 1004b2cc     lxdownloadmanager.obj
 0003:000002f4       ??_R0?AVQAction@@@8        1004b2f4     lxsystemtray.obj
 0003:00000310       ??_R0?AVQMenu@@@8          1004b310     lxsystemtray.obj
 0003:00000328       ??_R0?AVQWidget@@@8        1004b328     lxsystemtray.obj
 0003:00000344       ??_R0?AVQPaintDevice@@@8   1004b344     lxsystemtray.obj
 0003:00000364       ??_R0?AVQSystemTrayIcon@@@8 1004b364     lxsystemtray.obj
 0003:00000388       ??_R0?AVLxSystemTray@@@8   1004b388     lxsystemtray.obj
 0003:000003a8       ??_R0?AVLxBaseWin@@@8      1004b3a8     lxbasewin.obj
 0003:000003c4       ??_R0?AVQWebView@@@8       1004b3c4     lxbasewin.obj
 0003:000003e0       ??_R0?AVLxMainWindow@@@8   1004b3e0     lxmainwin.obj
 0003:00000400       ??_R0?AVLxNetWorkCookies@@@8 1004b400     lxnetworkcookie.obj
 0003:00000428       ??_R0?AVQNetworkCookieJar@@@8 1004b428     lxnetworkcookie.obj
 0003:00000450       ??_R0?AVLxWebPage@@@8      1004b450     lxwebpage.obj
 0003:0000046c       ??_R0?AVQWebPage@@@8       1004b46c     lxwebpage.obj
 0003:00000488       ??_R0?AVLxWebPluginFactory@@@8 1004b488     lxwebpluginfactory.obj
 0003:000004b0       ??_R0?AVQWebPluginFactory@@@8 1004b4b0     lxwebpluginfactory.obj
 0003:000004d8       ??_R0?AVLxCoreApplication@@@8 1004b4d8     lxcoreapplication.obj
 0003:00000500       ??_R0?AVLxOperate@@@8      1004b500     lxcoreapplication.obj
 0003:0000051c       ??_R0?AVQMovie@@@8         1004b51c     lxdialogoperate.obj
 0003:00000538       ??_R0?AVQLabel@@@8         1004b538     lxdialogoperate.obj
 0003:00000554       ??_R0?AVQFrame@@@8         1004b554     lxdialogoperate.obj
 0003:00000570       ??_R0?AVQBoxLayout@@@8     1004b570     lxdialogoperate.obj
 0003:00000590       ??_R0?AVQLayout@@@8        1004b590     lxdialogoperate.obj
 0003:000005ac       ??_R0?AVQLayoutItem@@@8    1004b5ac     lxdialogoperate.obj
 0003:000005cc       ??_R0?AVLxDialogBase@@@8   1004b5cc     lxdialogoperate.obj
 0003:000005ec       ??_R0?AVQPrintPreviewDialog@@@8 1004b5ec     lxdialogoperate.obj
 0003:00000614       ??_R0?AVQDialog@@@8        1004b614     lxdialogoperate.obj
 0003:00000630       ??_R0?AVLxDialogs@@@8      1004b630     lxdialogs.obj
 0003:0000064c       ??_R0?AVLxDir@@@8          1004b64c     lxdir.obj
 0003:00000664       ??_R0?AVLxFile@@@8         1004b664     lxfile.obj
 0003:00000680       ??_R0?AVLxLibManager@@@8   1004b680     lxlibmanager.obj
 0003:000006a0       ??_R0?AVQLibrary@@@8       1004b6a0     lxlibrary.obj
 0003:000006bc       ??_R0?AVLxLibrary@@@8      1004b6bc     lxlibrary.obj
 0003:000006d8       ??_R0?AVLxSqlQuery@@@8     1004b6d8     lxsqlquery.obj
 0003:000006f8       ??_R0?AVLxOption@@@8       1004b6f8     lxoption.obj
 0003:00000714       ??_R0?AVLxHttp@@@8         1004b714     lxhttp.obj
 0003:00000730       ??_R0?AVLxResources@@@8    1004b730     lxresources.obj
 0003:00000750       ??_R0?AVtype_info@@@8      1004b750     MSVCRT:ti_inst.obj
 0003:00000894       ?staticMetaObject@LxBaseWin@@2UQMetaObject@@B 1004b894     moc_lxbasewin.obj
 0003:000008b4       ?_Generic_object@?$_Error_objects@H@std@@2V_Generic_error_category@2@A 1004b8b4     moc_lxbasewin.obj
 0003:000008b8       ?_Iostream_object@?$_Error_objects@H@std@@2V_Iostream_error_category@2@A 1004b8b8     moc_lxbasewin.obj
 0003:000008bc       ?_System_object@?$_Error_objects@H@std@@2V_System_error_category@2@A 1004b8bc     moc_lxbasewin.obj
 0003:000008c0       ?id@?$num_put@DV?$back_insert_iterator@V?$basic_string@DU?$char_traits@D@std@@V?$allocator@D@2@@std@@@std@@@std@@2V0locale@2@A 1004b8c0     moc_lxbasewin.obj
 0003:000008c4       ?id@?$num_put@GV?$back_insert_iterator@V?$basic_string@GU?$char_traits@G@std@@V?$allocator@G@2@@std@@@std@@@std@@2V0locale@2@A 1004b8c4     moc_lxbasewin.obj
 0003:000008dc       ?staticMetaObject@LxCoreApplicationPrivate@@2UQMetaObject@@B 1004b8dc     moc_lxcoreprivate.obj
 0003:00000900       ?metatype_id@?1??qt_metatype_id@?$QMetaTypeId@VQNetworkRequest@@@@SAHXZ@4V?$QBasicAtomicInteger@H@@A 1004b900     moc_lxdialogoperate.obj
 0003:0000090c       ?staticMetaObject@LxDialogs@@2UQMetaObject@@B 1004b90c     moc_lxdialogs.obj
 0003:0000092c       ?metatype_id@?1??qt_metatype_id@?$QMetaTypeIdQObject@PAVLxDialogBase@@$00@@SAHXZ@4V?$QBasicAtomicInteger@H@@A 1004b92c     moc_lxdialogs.obj
 0003:00000938       ?staticMetaObject@LxDownloadItem@@2UQMetaObject@@B 1004b938     moc_lxdownloadmanager.obj
 0003:00000950       ?staticMetaObject@LxDownloadManager@@2UQMetaObject@@B 1004b950     moc_lxdownloadmanager.obj
 0003:00000974       ?metatype_id@?1??qt_metatype_id@?$QMetaTypeId@W4NetworkError@QNetworkReply@@@@SAHXZ@4V?$QBasicAtomicInteger@H@@A 1004b974     moc_lxdownloadmanager.obj
 0003:00000980       ?staticMetaObject@LxHttp@@2UQMetaObject@@B 1004b980     moc_lxHttp.obj
 0003:000009a4       ?staticMetaObject@LxLibManager@@2UQMetaObject@@B 1004b9a4     moc_lxlibmanager.obj
 0003:000009c8       ?staticMetaObject@LxLibrary@@2UQMetaObject@@B 1004b9c8     moc_lxlibrary.obj
 0003:000009f0       ?staticMetaObject@LxMainWindow@@2UQMetaObject@@B 1004b9f0     moc_lxmainwin.obj
 0003:00000a14       ?staticMetaObject@LxNetWorkCookies@@2UQMetaObject@@B 1004ba14     moc_lxnetworkcookie.obj
 0003:00000a38       ?staticMetaObject@LxOperate@@2UQMetaObject@@B 1004ba38     moc_lxoperate.obj
 0003:00000a5c       ?staticMetaObject@LxOption@@2UQMetaObject@@B 1004ba5c     moc_lxoption.obj
 0003:00000a80       ?staticMetaObject@LxResources@@2UQMetaObject@@B 1004ba80     moc_lxresources.obj
 0003:00000aa4       ?staticMetaObject@LxSystemTray@@2UQMetaObject@@B 1004baa4     moc_lxsystemtray.obj
 0003:00000ac8       ?staticMetaObject@LxWebPage@@2UQMetaObject@@B 1004bac8     moc_lxwebpage.obj
 0003:00000ae8       ?metatype_id@?1??qt_metatype_id@?$QMetaTypeIdQObject@PAVQWebFrame@@$00@@SAHXZ@4V?$QBasicAtomicInteger@H@@A 1004bae8     moc_lxwebpage.obj
 0003:00000aec       ?metatype_id@?1??qt_metatype_id@?$QMetaTypeIdQObject@PAVQNetworkReply@@$00@@SAHXZ@4V?$QBasicAtomicInteger@H@@A 1004baec     moc_lxwebpage.obj
 0003:00000af4       ?staticMetaObject@LxWebPluginFactory@@2UQMetaObject@@B 1004baf4     moc_lxwebpluginfactory.obj
 0003:00000b14       ?m_pNetworkAccessManager@LxDownloadManager@@0PAVQNetworkAccessManager@@A 1004bb14     lxdownloadmanager.obj
 0003:00000b28       ___@@_PchSym_@00@UnblkvmhlfixvolnlcUolnlcUolnlcUolnlcUivovzhvUhgwzucOlyq@48CC34781D49CFA0 1004bb28     stdafx.obj
 0003:00000ee8       ?__type_info_root_node@@3U__type_info_node@@A 1004bee8     MSVCRT:tncleanup.obj
 0003:00000ef0       ___native_startup_lock     1004bef0     <common>
 0003:00000f00       ___native_startup_state    1004bf00     <common>
 0003:00000f04       ___dyn_tls_init_callback   1004bf04     <common>
 0003:00000f10       ___onexitend               1004bf10     <common>
 0003:00000f20       ___onexitbegin             1004bf20     <common>
 0004:00000000       __imp__DisableThreadLibraryCalls@4 1004c000     kernel32:KERNEL32.dll
 0004:00000004       __imp__GetSystemTimeAsFileTime@4 1004c004     kernel32:KERNEL32.dll
 0004:00000008       __imp__GetCurrentThreadId@0 1004c008     kernel32:KERNEL32.dll
 0004:0000000c       __imp__GetCurrentProcessId@0 1004c00c     kernel32:KERNEL32.dll
 0004:00000010       __imp__QueryPerformanceCounter@4 1004c010     kernel32:KERNEL32.dll
 0004:00000014       __imp__IsProcessorFeaturePresent@4 1004c014     kernel32:KERNEL32.dll
 0004:00000018       __imp__IsDebuggerPresent@0 1004c018     kernel32:KERNEL32.dll
 0004:0000001c       __imp__DecodePointer@4     1004c01c     kernel32:KERNEL32.dll
 0004:00000020       __imp__EncodePointer@4     1004c020     kernel32:KERNEL32.dll
 0004:00000024       \177KERNEL32_NULL_THUNK_DATA 1004c024     kernel32:KERNEL32.dll
 0004:00000054       __imp_?_Xlength_error@std@@YAXPBD@Z 1004c054     msvcprt:MSVCP120.dll
 0004:00000058       __imp_?_Xout_of_range@std@@YAXPBD@Z 1004c058     msvcprt:MSVCP120.dll
 0004:0000005c       __imp_??0id@locale@std@@QAE@I@Z 1004c05c     msvcprt:MSVCP120.dll
 0004:00000060       __imp_?_Syserror_map@std@@YAPBDH@Z 1004c060     msvcprt:MSVCP120.dll
 0004:00000064       __imp_?_Winerror_map@std@@YAPBDH@Z 1004c064     msvcprt:MSVCP120.dll
 0004:00000068       __imp_?_Orphan_all@_Container_base0@std@@QAEXXZ 1004c068     msvcprt:MSVCP120.dll
 0004:0000006c       __imp_?_Xbad_alloc@std@@YAXXZ 1004c06c     msvcprt:MSVCP120.dll
 0004:00000070       \177MSVCP120_NULL_THUNK_DATA 1004c070     msvcprt:MSVCP120.dll
 0004:000000a0       __imp___malloc_crt         1004c0a0     MSVCRT:MSVCR120.dll
 0004:000000a4       __imp__free                1004c0a4     MSVCRT:MSVCR120.dll
 0004:000000a8       __imp___amsg_exit          1004c0a8     MSVCRT:MSVCR120.dll
 0004:000000ac       __imp____CppXcptFilter     1004c0ac     MSVCRT:MSVCR120.dll
 0004:000000b0       __imp_?terminate@@YAXXZ    1004c0b0     MSVCRT:MSVCR120.dll
 0004:000000b4       __imp_??1type_info@@UAE@XZ 1004c0b4     MSVCRT:MSVCR120.dll
 0004:000000b8       __imp___initterm           1004c0b8     MSVCRT:MSVCR120.dll
 0004:000000bc       __imp____dllonexit         1004c0bc     MSVCRT:MSVCR120.dll
 0004:000000c0       __imp___calloc_crt         1004c0c0     MSVCRT:MSVCR120.dll
 0004:000000c4       __imp___unlock             1004c0c4     MSVCRT:MSVCR120.dll
 0004:000000c8       __imp___lock               1004c0c8     MSVCRT:MSVCR120.dll
 0004:000000cc       __imp_??_V@YAXPAX@Z        1004c0cc     MSVCRT:MSVCR120.dll
 0004:000000d0       __imp____CxxFrameHandler3  1004c0d0     MSVCRT:MSVCR120.dll
 0004:000000d4       __imp___CxxThrowException@8 1004c0d4     MSVCRT:MSVCR120.dll
 0004:000000d8       __imp___hypot              1004c0d8     MSVCRT:MSVCR120.dll
 0004:000000dc       __imp__memmove             1004c0dc     MSVCRT:MSVCR120.dll
 0004:000000e0       __imp__strlen              1004c0e0     MSVCRT:MSVCR120.dll
 0004:000000e4       __imp__strcmp              1004c0e4     MSVCRT:MSVCR120.dll
 0004:000000e8       __imp__memcpy              1004c0e8     MSVCRT:MSVCR120.dll
 0004:000000ec       __imp_??3@YAXPAX@Z         1004c0ec     MSVCRT:MSVCR120.dll
 0004:000000f0       __imp_??2@YAPAXI@Z         1004c0f0     MSVCRT:MSVCR120.dll
 0004:000000f4       __imp___purecall           1004c0f4     MSVCRT:MSVCR120.dll
 0004:000000f8       __imp___initterm_e         1004c0f8     MSVCRT:MSVCR120.dll
 0004:000000fc       __imp___except_handler4_common 1004c0fc     MSVCRT:MSVCR120.dll
 0004:00000100       __imp___crt_debugger_hook  1004c100     MSVCRT:MSVCR120.dll
 0004:00000104       __imp____crtUnhandledException 1004c104     MSVCRT:MSVCR120.dll
 0004:00000108       __imp____crtTerminateProcess 1004c108     MSVCRT:MSVCR120.dll
 0004:0000010c       __imp____clean_type_info_names_internal 1004c10c     MSVCRT:MSVCR120.dll
 0004:00000110       __imp___onexit             1004c110     MSVCRT:MSVCR120.dll
 0004:00000114       \177MSVCR120_NULL_THUNK_DATA 1004c114     MSVCRT:MSVCR120.dll
 0004:00000154       __imp_?unregisterResource@QResource@@SA_NABVQString@@0@Z 1004c154     Qt5Core:Qt5Core.dll
 0004:00000158       __imp_?exec@QEventLoop@@QAEHV?$QFlags@W4ProcessEventsFlag@QEventLoop@@@@@Z 1004c158     Qt5Core:Qt5Core.dll
 0004:0000015c       __imp_??1QEventLoop@@UAE@XZ 1004c15c     Qt5Core:Qt5Core.dll
 0004:00000160       __imp_??0QEventLoop@@QAE@PAVQObject@@@Z 1004c160     Qt5Core:Qt5Core.dll
 0004:00000164       __imp_?toEncoded@QUrl@@QBE?AVQByteArray@@V?$QUrlTwoFlags@W4UrlFormattingOption@QUrl@@W4ComponentFormattingOption@2@@@@Z 1004c164     Qt5Core:Qt5Core.dll
 0004:00000168       __imp_?readAll@QTextStream@@QAE?AVQString@@XZ 1004c168     Qt5Core:Qt5Core.dll
 0004:0000016c       __imp_?setCodec@QTextStream@@QAEXPAVQTextCodec@@@Z 1004c16c     Qt5Core:Qt5Core.dll
 0004:00000170       __imp_??0QTextStream@@QAE@ABVQByteArray@@V?$QFlags@W4OpenModeFlag@QIODevice@@@@@Z 1004c170     Qt5Core:Qt5Core.dll
 0004:00000174       __imp_?codecForName@QTextCodec@@SAPAV1@ABVQByteArray@@@Z 1004c174     Qt5Core:Qt5Core.dll
 0004:00000178       __imp_?cap@QRegExp@@QAE?AVQString@@H@Z 1004c178     Qt5Core:Qt5Core.dll
 0004:0000017c       __imp_??1QRegExp@@QAE@XZ   1004c17c     Qt5Core:Qt5Core.dll
 0004:00000180       __imp_??0QRegExp@@QAE@ABVQString@@W4CaseSensitivity@Qt@@W4PatternSyntax@0@@Z 1004c180     Qt5Core:Qt5Core.dll
 0004:00000184       __imp_??9QString@@QBE_NPBD@Z 1004c184     Qt5Core:Qt5Core.dll
 0004:00000188       __imp_?trimmed@QString@@QBE?AV1@XZ 1004c188     Qt5Core:Qt5Core.dll
 0004:0000018c       __imp_?indexOf@QString@@QBEHAAVQRegExp@@H@Z 1004c18c     Qt5Core:Qt5Core.dll
 0004:00000190       __imp_?size@QString@@QBEHXZ 1004c190     Qt5Core:Qt5Core.dll
 0004:00000194       __imp_?value@QSettings@@QBE?AVQVariant@@ABVQString@@ABV2@@Z 1004c194     Qt5Core:Qt5Core.dll
 0004:00000198       __imp_??1QSettings@@UAE@XZ 1004c198     Qt5Core:Qt5Core.dll
 0004:0000019c       __imp_??0QSettings@@QAE@ABVQString@@W4Format@0@PAVQObject@@@Z 1004c19c     Qt5Core:Qt5Core.dll
 0004:000001a0       __imp_?registerResource@QResource@@SA_NABVQString@@0@Z 1004c1a0     Qt5Core:Qt5Core.dll
 0004:000001a4       __imp_?exists@QFile@@SA_NABVQString@@@Z 1004c1a4     Qt5Core:Qt5Core.dll
 0004:000001a8       __imp_??0QVariant@@QAE@XZ  1004c1a8     Qt5Core:Qt5Core.dll
 0004:000001ac       __imp_?metaObject@QObject@@UBEPBUQMetaObject@@XZ 1004c1ac     Qt5Core:Qt5Core.dll
 0004:000001b0       __imp_?qt_metacast@QLibrary@@UAEPAXPBD@Z 1004c1b0     Qt5Core:Qt5Core.dll
 0004:000001b4       __imp_?qt_metacall@QLibrary@@UAEHW4Call@QMetaObject@@HPAPAX@Z 1004c1b4     Qt5Core:Qt5Core.dll
 0004:000001b8       __imp_?metaObject@QLibrary@@UBEPBUQMetaObject@@XZ 1004c1b8     Qt5Core:Qt5Core.dll
 0004:000001bc       __imp_?isLoaded@QLibrary@@QBE_NXZ 1004c1bc     Qt5Core:Qt5Core.dll
 0004:000001c0       __imp_?unload@QLibrary@@QAE_NXZ 1004c1c0     Qt5Core:Qt5Core.dll
 0004:000001c4       __imp_?load@QLibrary@@QAE_NXZ 1004c1c4     Qt5Core:Qt5Core.dll
 0004:000001c8       __imp_?resolve@QLibrary@@QAEP6AXXZPBD@Z 1004c1c8     Qt5Core:Qt5Core.dll
 0004:000001cc       __imp_??1QLibrary@@UAE@XZ  1004c1cc     Qt5Core:Qt5Core.dll
 0004:000001d0       __imp_??0QLibrary@@QAE@ABVQString@@PAVQObject@@@Z 1004c1d0     Qt5Core:Qt5Core.dll
 0004:000001d4       __imp_??0QVariant@@QAE@$$QAV0@@Z 1004c1d4     Qt5Core:Qt5Core.dll
 0004:000001d8       __imp_?toLatin1@QString@@QBE?AVQByteArray@@XZ 1004c1d8     Qt5Core:Qt5Core.dll
 0004:000001dc       __imp_?copy@QFile@@SA_NABVQString@@0@Z 1004c1dc     Qt5Core:Qt5Core.dll
 0004:000001e0       __imp_?rename@QFile@@SA_NABVQString@@0@Z 1004c1e0     Qt5Core:Qt5Core.dll
 0004:000001e4       __imp_?remove@QFile@@SA_NABVQString@@@Z 1004c1e4     Qt5Core:Qt5Core.dll
 0004:000001e8       __imp_?toByteArray@QVariant@@QBE?AVQByteArray@@XZ 1004c1e8     Qt5Core:Qt5Core.dll
 0004:000001ec       __imp_??0QVariant@@QAE@ABVQByteArray@@@Z 1004c1ec     Qt5Core:Qt5Core.dll
 0004:000001f0       __imp_??0QVariant@@QAE@_J@Z 1004c1f0     Qt5Core:Qt5Core.dll
 0004:000001f4       __imp_??BQByteArray@@QBEPBDXZ 1004c1f4     Qt5Core:Qt5Core.dll
 0004:000001f8       __imp_?exists@QDir@@QBE_NXZ 1004c1f8     Qt5Core:Qt5Core.dll
 0004:000001fc       __imp_?mkdir@QDir@@QBE_NABVQString@@@Z 1004c1fc     Qt5Core:Qt5Core.dll
 0004:00000200       __imp_?codecForName@QTextCodec@@SAPAV1@PBD@Z 1004c200     Qt5Core:Qt5Core.dll
 0004:00000204       __imp_?data@QByteArray@@QAEPADXZ 1004c204     Qt5Core:Qt5Core.dll
 0004:00000208       __imp_??0QVariant@@QAE@_N@Z 1004c208     Qt5Core:Qt5Core.dll
 0004:0000020c       __imp_?nextNode@QMapNodeBase@@QAEPAU1@XZ 1004c20c     Qt5Core:Qt5Core.dll
 0004:00000210       __imp_?toLocal8Bit@QString@@QBE?AVQByteArray@@XZ 1004c210     Qt5Core:Qt5Core.dll
 0004:00000214       __imp_?constData@QByteArray@@QBEPBDXZ 1004c214     Qt5Core:Qt5Core.dll
 0004:00000218       __imp_??0QSize@@QAE@HH@Z   1004c218     Qt5Core:Qt5Core.dll
 0004:0000021c       __imp_??4QUrl@@QAEAAV0@$$QAV0@@Z 1004c21c     Qt5Core:Qt5Core.dll
 0004:00000220       __imp_?toDouble@QVariant@@QBENPA_N@Z 1004c220     Qt5Core:Qt5Core.dll
 0004:00000224       __imp_?y@QPoint@@QBEHXZ    1004c224     Qt5Core:Qt5Core.dll
 0004:00000228       __imp_?x@QPoint@@QBEHXZ    1004c228     Qt5Core:Qt5Core.dll
 0004:0000022c       __imp_??0QPoint@@QAE@HH@Z  1004c22c     Qt5Core:Qt5Core.dll
 0004:00000230       __imp_?qBadAlloc@@YAXXZ    1004c230     Qt5Core:Qt5Core.dll
 0004:00000234       __imp_?arguments@QCoreApplication@@SA?AVQStringList@@XZ 1004c234     Qt5Core:Qt5Core.dll
 0004:00000238       __imp_?execute@QProcess@@SAHABVQString@@@Z 1004c238     Qt5Core:Qt5Core.dll
 0004:0000023c       __imp_?execute@QProcess@@SAHABVQString@@ABVQStringList@@@Z 1004c23c     Qt5Core:Qt5Core.dll
 0004:00000240       __imp_??8QVariant@@QBE_NABV0@@Z 1004c240     Qt5Core:Qt5Core.dll
 0004:00000244       __imp_?toStringList@QVariant@@QBE?AVQStringList@@XZ 1004c244     Qt5Core:Qt5Core.dll
 0004:00000248       __imp_?isNull@QVariant@@QBE_NXZ 1004c248     Qt5Core:Qt5Core.dll
 0004:0000024c       __imp_?isValid@QVariant@@QBE_NXZ 1004c24c     Qt5Core:Qt5Core.dll
 0004:00000250       __imp_?type@QVariant@@QBE?AW4Type@1@XZ 1004c250     Qt5Core:Qt5Core.dll
 0004:00000254       __imp_??0QVariant@@QAE@ABVQStringList@@@Z 1004c254     Qt5Core:Qt5Core.dll
 0004:00000258       __imp_??0QVariant@@QAE@W4Type@0@@Z 1004c258     Qt5Core:Qt5Core.dll
 0004:0000025c       __imp_?errorString@QPluginLoader@@QBE?AVQString@@XZ 1004c25c     Qt5Core:Qt5Core.dll
 0004:00000260       __imp_?instance@QPluginLoader@@QAEPAVQObject@@XZ 1004c260     Qt5Core:Qt5Core.dll
 0004:00000264       __imp_??1QPluginLoader@@UAE@XZ 1004c264     Qt5Core:Qt5Core.dll
 0004:00000268       __imp_??0QPluginLoader@@QAE@ABVQString@@PAVQObject@@@Z 1004c268     Qt5Core:Qt5Core.dll
 0004:0000026c       __imp_?isLibrary@QLibrary@@SA_NABVQString@@@Z 1004c26c     Qt5Core:Qt5Core.dll
 0004:00000270       __imp_?libraryPaths@QCoreApplication@@SA?AVQStringList@@XZ 1004c270     Qt5Core:Qt5Core.dll
 0004:00000274       __imp_?entryList@QDir@@QBE?AVQStringList@@ABV2@V?$QFlags@W4Filter@QDir@@@@V?$QFlags@W4SortFlag@QDir@@@@@Z 1004c274     Qt5Core:Qt5Core.dll
 0004:00000278       __imp_?filePath@QDir@@QBE?AVQString@@ABV2@@Z 1004c278     Qt5Core:Qt5Core.dll
 0004:0000027c       __imp_?absolutePath@QDir@@QBE?AVQString@@XZ 1004c27c     Qt5Core:Qt5Core.dll
 0004:00000280       __imp_??6QDebug@@QAEAAV0@D@Z 1004c280     Qt5Core:Qt5Core.dll
 0004:00000284       __imp_??6QDebug@@QAEAAV0@_N@Z 1004c284     Qt5Core:Qt5Core.dll
 0004:00000288       __imp_?setAutoInsertSpaces@QDebug@@QAEX_N@Z 1004c288     Qt5Core:Qt5Core.dll
 0004:0000028c       __imp_?autoInsertSpaces@QDebug@@QBE_NXZ 1004c28c     Qt5Core:Qt5Core.dll
 0004:00000290       __imp_?maybeSpace@QDebug@@QAEAAV1@XZ 1004c290     Qt5Core:Qt5Core.dll
 0004:00000294       __imp_?nospace@QDebug@@QAEAAV1@XZ 1004c294     Qt5Core:Qt5Core.dll
 0004:00000298       __imp_?toUpper@QString@@QBE?AV1@XZ 1004c298     Qt5Core:Qt5Core.dll
 0004:0000029c       __imp_??6@YA?AVQDebug@@V0@ABVQUrl@@@Z 1004c29c     Qt5Core:Qt5Core.dll
 0004:000002a0       __imp_??0QDebug@@QAE@ABV0@@Z 1004c2a0     Qt5Core:Qt5Core.dll
 0004:000002a4       __imp_?toString@QVariant@@QBE?AVQString@@XZ 1004c2a4     Qt5Core:Qt5Core.dll
 0004:000002a8       __imp_??8QString@@QBE_NVQLatin1String@@@Z 1004c2a8     Qt5Core:Qt5Core.dll
 0004:000002ac       __imp_?toLower@QString@@QBE?AV1@XZ 1004c2ac     Qt5Core:Qt5Core.dll
 0004:000002b0       __imp_?open@QFile@@UAE_NV?$QFlags@W4OpenModeFlag@QIODevice@@@@@Z 1004c2b0     Qt5Core:Qt5Core.dll
 0004:000002b4       __imp_?exists@QFile@@QBE_NXZ 1004c2b4     Qt5Core:Qt5Core.dll
 0004:000002b8       __imp_??0QFile@@QAE@ABVQString@@@Z 1004c2b8     Qt5Core:Qt5Core.dll
 0004:000002bc       __imp_?close@QFileDevice@@UAEXXZ 1004c2bc     Qt5Core:Qt5Core.dll
 0004:000002c0       __imp_??6QDebug@@QAEAAV0@ABVQString@@@Z 1004c2c0     Qt5Core:Qt5Core.dll
 0004:000002c4       __imp_??6QTextStream@@QAEAAV0@PBD@Z 1004c2c4     Qt5Core:Qt5Core.dll
 0004:000002c8       __imp_??6QTextStream@@QAEAAV0@ABVQByteArray@@@Z 1004c2c8     Qt5Core:Qt5Core.dll
 0004:000002cc       __imp_?readLine@QTextStream@@QAE?AVQString@@_J@Z 1004c2cc     Qt5Core:Qt5Core.dll
 0004:000002d0       __imp_?atEnd@QTextStream@@QBE_NXZ 1004c2d0     Qt5Core:Qt5Core.dll
 0004:000002d4       __imp_??1QTextStream@@UAE@XZ 1004c2d4     Qt5Core:Qt5Core.dll
 0004:000002d8       __imp_??0QTextStream@@QAE@PAVQIODevice@@@Z 1004c2d8     Qt5Core:Qt5Core.dll
 0004:000002dc       __imp_?readLine@QIODevice@@QAE?AVQByteArray@@_J@Z 1004c2dc     Qt5Core:Qt5Core.dll
 0004:000002e0       __imp_?at@QListData@@QBEPAPAXH@Z 1004c2e0     Qt5Core:Qt5Core.dll
 0004:000002e4       __imp_?isEmpty@QListData@@QBE_NXZ 1004c2e4     Qt5Core:Qt5Core.dll
 0004:000002e8       __imp_?size@QListData@@QBEHXZ 1004c2e8     Qt5Core:Qt5Core.dll
 0004:000002ec       __imp_?append@QListData@@QAEPAPAXABU1@@Z 1004c2ec     Qt5Core:Qt5Core.dll
 0004:000002f0       __imp_?detach@QListData@@QAEPAUData@1@H@Z 1004c2f0     Qt5Core:Qt5Core.dll
 0004:000002f4       __imp_??8@YA_NABVQString@@0@Z 1004c2f4     Qt5Core:Qt5Core.dll
 0004:000002f8       __imp_?fromUtf8@QString@@SA?AV1@ABVQByteArray@@@Z 1004c2f8     Qt5Core:Qt5Core.dll
 0004:000002fc       __imp_?toUtf8@QString@@QBE?AVQByteArray@@XZ 1004c2fc     Qt5Core:Qt5Core.dll
 0004:00000300       __imp_?left@QString@@QBE?AV1@H@Z 1004c300     Qt5Core:Qt5Core.dll
 0004:00000304       __imp_?indexOf@QString@@QBEHABV1@HW4CaseSensitivity@Qt@@@Z 1004c304     Qt5Core:Qt5Core.dll
 0004:00000308       __imp_?isNull@QByteArray@@QBE_NXZ 1004c308     Qt5Core:Qt5Core.dll
 0004:0000030c       __imp_??4QByteArray@@QAEAAV0@$$QAV0@@Z 1004c30c     Qt5Core:Qt5Core.dll
 0004:00000310       __imp_?warning@QMessageLogger@@QBE?AVQDebug@@XZ 1004c310     Qt5Core:Qt5Core.dll
 0004:00000314       __imp_?quit@QCoreApplication@@SAXXZ 1004c314     Qt5Core:Qt5Core.dll
 0004:00000318       __imp_?setLibraryPaths@QCoreApplication@@SAXABVQStringList@@@Z 1004c318     Qt5Core:Qt5Core.dll
 0004:0000031c       __imp_?instance@QCoreApplication@@SAPAV1@XZ 1004c31c     Qt5Core:Qt5Core.dll
 0004:00000320       __imp_?separator@QDir@@SA?AVQChar@@XZ 1004c320     Qt5Core:Qt5Core.dll
 0004:00000324       __imp_?mkpath@QDir@@QBE_NABVQString@@@Z 1004c324     Qt5Core:Qt5Core.dll
 0004:00000328       __imp_??1QDir@@QAE@XZ      1004c328     Qt5Core:Qt5Core.dll
 0004:0000032c       __imp_??0QDir@@QAE@ABVQString@@@Z 1004c32c     Qt5Core:Qt5Core.dll
 0004:00000330       __imp_?isAbsolute@QFileInfo@@QBE_NXZ 1004c330     Qt5Core:Qt5Core.dll
 0004:00000334       __imp_??YQString@@QAEAAV0@PBD@Z 1004c334     Qt5Core:Qt5Core.dll
 0004:00000338       __imp_??YQString@@QAEAAV0@VQChar@@@Z 1004c338     Qt5Core:Qt5Core.dll
 0004:0000033c       __imp_?indexOf@QString@@QBEHVQChar@@HW4CaseSensitivity@Qt@@@Z 1004c33c     Qt5Core:Qt5Core.dll
 0004:00000340       __imp_??0QChar@@QAE@H@Z    1004c340     Qt5Core:Qt5Core.dll
 0004:00000344       __imp_??6QDebug@@QAEAAV0@H@Z 1004c344     Qt5Core:Qt5Core.dll
 0004:00000348       __imp_??4QString@@QAEAAV0@PBD@Z 1004c348     Qt5Core:Qt5Core.dll
 0004:0000034c       __imp_?sharedNull@QArrayData@@SAPAU1@XZ 1004c34c     Qt5Core:Qt5Core.dll
 0004:00000350       __imp_?deallocate@QArrayData@@SAXPAU1@II@Z 1004c350     Qt5Core:Qt5Core.dll
 0004:00000354       __imp_?data@QArrayData@@QAEPAXXZ 1004c354     Qt5Core:Qt5Core.dll
 0004:00000358       __imp_?debug@QMessageLogger@@QBAXPBDZZ 1004c358     Qt5Core:Qt5Core.dll
 0004:0000035c       __imp_?shared_null@QMapDataBase@@2U1@B 1004c35c     Qt5Core:Qt5Core.dll
 0004:00000360       __imp_?getAndRef@ExternalRefCountData@QtSharedPointer@@SAPAU12@PBVQObject@@@Z 1004c360     Qt5Core:Qt5Core.dll
 0004:00000364       __imp_?freeData@QMapDataBase@@SAXPAU1@@Z 1004c364     Qt5Core:Qt5Core.dll
 0004:00000368       __imp_?createData@QMapDataBase@@SAPAU1@XZ 1004c368     Qt5Core:Qt5Core.dll
 0004:0000036c       __imp_?freeTree@QMapDataBase@@QAEXPAUQMapNodeBase@@H@Z 1004c36c     Qt5Core:Qt5Core.dll
 0004:00000370       __imp_?createNode@QMapDataBase@@QAEPAUQMapNodeBase@@HHPAU2@_N@Z 1004c370     Qt5Core:Qt5Core.dll
 0004:00000374       __imp_?recalcMostLeftNode@QMapDataBase@@QAEXXZ 1004c374     Qt5Core:Qt5Core.dll
 0004:00000378       __imp_?freeNodeAndRebalance@QMapDataBase@@QAEXPAUQMapNodeBase@@@Z 1004c378     Qt5Core:Qt5Core.dll
 0004:0000037c       __imp_?setParent@QMapNodeBase@@QAEXPAU1@@Z 1004c37c     Qt5Core:Qt5Core.dll
 0004:00000380       __imp_?setColor@QMapNodeBase@@QAEXW4Color@1@@Z 1004c380     Qt5Core:Qt5Core.dll
 0004:00000384       __imp_?color@QMapNodeBase@@QBE?AW4Color@1@XZ 1004c384     Qt5Core:Qt5Core.dll
 0004:00000388       __imp_?setObjectName@QObject@@QAEXABVQString@@@Z 1004c388     Qt5Core:Qt5Core.dll
 0004:0000038c       __imp_??M@YA_NABVQString@@0@Z 1004c38c     Qt5Core:Qt5Core.dll
 0004:00000390       __imp_??0QString@@QAE@XZ   1004c390     Qt5Core:Qt5Core.dll
 0004:00000394       __imp_?shared_null@QListData@@2UData@1@B 1004c394     Qt5Core:Qt5Core.dll
 0004:00000398       __imp_?applicationDirPath@QCoreApplication@@SA?AVQString@@XZ 1004c398     Qt5Core:Qt5Core.dll
 0004:0000039c       __imp_?path@QUrl@@QBE?AVQString@@V?$QFlags@W4ComponentFormattingOption@QUrl@@@@@Z 1004c39c     Qt5Core:Qt5Core.dll
 0004:000003a0       __imp_?scheme@QUrl@@QBE?AVQString@@XZ 1004c3a0     Qt5Core:Qt5Core.dll
 0004:000003a4       __imp_?isEmpty@QUrl@@QBE_NXZ 1004c3a4     Qt5Core:Qt5Core.dll
 0004:000003a8       __imp_?isValid@QUrl@@QBE_NXZ 1004c3a8     Qt5Core:Qt5Core.dll
 0004:000003ac       __imp_?toString@QUrl@@QBE?AVQString@@V?$QUrlTwoFlags@W4UrlFormattingOption@QUrl@@W4ComponentFormattingOption@2@@@@Z 1004c3ac     Qt5Core:Qt5Core.dll
 0004:000003b0       __imp_??0QUrl@@QAE@ABVQString@@W4ParsingMode@0@@Z 1004c3b0     Qt5Core:Qt5Core.dll
 0004:000003b4       __imp_??0QUrl@@QAE@ABV0@@Z 1004c3b4     Qt5Core:Qt5Core.dll
 0004:000003b8       __imp_?writableLocation@QStandardPaths@@SA?AVQString@@W4StandardLocation@1@@Z 1004c3b8     Qt5Core:Qt5Core.dll
 0004:000003bc       __imp_?suffix@QFileInfo@@QBE?AVQString@@XZ 1004c3bc     Qt5Core:Qt5Core.dll
 0004:000003c0       __imp_?completeBaseName@QFileInfo@@QBE?AVQString@@XZ 1004c3c0     Qt5Core:Qt5Core.dll
 0004:000003c4       __imp_??1QFileInfo@@QAE@XZ 1004c3c4     Qt5Core:Qt5Core.dll
 0004:000003c8       __imp_??0QFileInfo@@QAE@ABVQString@@@Z 1004c3c8     Qt5Core:Qt5Core.dll
 0004:000003cc       __imp_?setFileName@QFile@@QAEXABVQString@@@Z 1004c3cc     Qt5Core:Qt5Core.dll
 0004:000003d0       __imp_??1QFile@@UAE@XZ     1004c3d0     Qt5Core:Qt5Core.dll
 0004:000003d4       __imp_??0QFile@@QAE@XZ     1004c3d4     Qt5Core:Qt5Core.dll
 0004:000003d8       __imp_??6QDebug@@QAEAAV0@PBD@Z 1004c3d8     Qt5Core:Qt5Core.dll
 0004:000003dc       __imp_??1QDebug@@QAE@XZ    1004c3dc     Qt5Core:Qt5Core.dll
 0004:000003e0       __imp_?toUrl@QVariant@@QBE?AVQUrl@@XZ 1004c3e0     Qt5Core:Qt5Core.dll
 0004:000003e4       __imp_?toInt@QVariant@@QBEHPA_N@Z 1004c3e4     Qt5Core:Qt5Core.dll
 0004:000003e8       __imp_??0QVariant@@QAE@ABVQString@@@Z 1004c3e8     Qt5Core:Qt5Core.dll
 0004:000003ec       __imp_??0QVariant@@QAE@PBD@Z 1004c3ec     Qt5Core:Qt5Core.dll
 0004:000003f0       __imp_?errorString@QIODevice@@QBE?AVQString@@XZ 1004c3f0     Qt5Core:Qt5Core.dll
 0004:000003f4       __imp_?write@QIODevice@@QAE_JABVQByteArray@@@Z 1004c3f4     Qt5Core:Qt5Core.dll
 0004:000003f8       __imp_?readAll@QIODevice@@QAE?AVQByteArray@@XZ 1004c3f8     Qt5Core:Qt5Core.dll
 0004:000003fc       __imp_?isOpen@QIODevice@@QBE_NXZ 1004c3fc     Qt5Core:Qt5Core.dll
 0004:00000400       __imp_?deleteLater@QObject@@QAEXXZ 1004c400     Qt5Core:Qt5Core.dll
 0004:00000404       __imp_?setProperty@QObject@@QAE_NPBDABVQVariant@@@Z 1004c404     Qt5Core:Qt5Core.dll
 0004:00000408       __imp_?connect@QObject@@SA?AVConnection@QMetaObject@@PBV1@PBD01W4ConnectionType@Qt@@@Z 1004c408     Qt5Core:Qt5Core.dll
 0004:0000040c       __imp_?setParent@QObject@@QAEXPAV1@@Z 1004c40c     Qt5Core:Qt5Core.dll
 0004:00000410       __imp_??1QObject@@UAE@XZ   1004c410     Qt5Core:Qt5Core.dll
 0004:00000414       __imp_?end@QListData@@QBEPAPAXXZ 1004c414     Qt5Core:Qt5Core.dll
 0004:00000418       __imp_?begin@QListData@@QBEPAPAXXZ 1004c418     Qt5Core:Qt5Core.dll
 0004:0000041c       __imp_?append@QListData@@QAEPAPAXXZ 1004c41c     Qt5Core:Qt5Core.dll
 0004:00000420       __imp_?dispose@QListData@@SAXPAUData@1@@Z 1004c420     Qt5Core:Qt5Core.dll
 0004:00000424       __imp_?dispose@QListData@@QAEXXZ 1004c424     Qt5Core:Qt5Core.dll
 0004:00000428       __imp_?detach_grow@QListData@@QAEPAUData@1@PAHH@Z 1004c428     Qt5Core:Qt5Core.dll
 0004:0000042c       __imp_?toStdString@QString@@QBE?AV?$basic_string@DU?$char_traits@D@std@@V?$allocator@D@2@@std@@XZ 1004c42c     Qt5Core:Qt5Core.dll
 0004:00000430       __imp_??8QString@@QBE_NPBD@Z 1004c430     Qt5Core:Qt5Core.dll
 0004:00000434       __imp_??0QString@@QAE@ABVQByteArray@@@Z 1004c434     Qt5Core:Qt5Core.dll
 0004:00000438       __imp_?fromLocal8Bit@QString@@SA?AV1@PBDH@Z 1004c438     Qt5Core:Qt5Core.dll
 0004:0000043c       __imp_?fromUtf8@QString@@SA?AV1@PBDH@Z 1004c43c     Qt5Core:Qt5Core.dll
 0004:00000440       __imp_?remove@QString@@QAEAAV1@ABV1@W4CaseSensitivity@Qt@@@Z 1004c440     Qt5Core:Qt5Core.dll
 0004:00000444       __imp_??YQString@@QAEAAV0@ABV0@@Z 1004c444     Qt5Core:Qt5Core.dll
 0004:00000448       __imp_?prepend@QString@@QAEAAV1@VQChar@@@Z 1004c448     Qt5Core:Qt5Core.dll
 0004:0000044c       __imp_?right@QString@@QBE?AV1@H@Z 1004c44c     Qt5Core:Qt5Core.dll
 0004:00000450       __imp_?contains@QString@@QBE_NVQChar@@W4CaseSensitivity@Qt@@@Z 1004c450     Qt5Core:Qt5Core.dll
 0004:00000454       __imp_?lastIndexOf@QString@@QBEHABV1@HW4CaseSensitivity@Qt@@@Z 1004c454     Qt5Core:Qt5Core.dll
 0004:00000458       __imp_?arg@QString@@QBE?AV1@ABV1@HVQChar@@@Z 1004c458     Qt5Core:Qt5Core.dll
 0004:0000045c       __imp_?isEmpty@QString@@QBE_NXZ 1004c45c     Qt5Core:Qt5Core.dll
 0004:00000460       __imp_??4QString@@QAEAAV0@$$QAV0@@Z 1004c460     Qt5Core:Qt5Core.dll
 0004:00000464       __imp_?tr@QMetaObject@@QBE?AVQString@@PBD0H@Z 1004c464     Qt5Core:Qt5Core.dll
 0004:00000468       __imp_??0QString@@QAE@PBD@Z 1004c468     Qt5Core:Qt5Core.dll
 0004:0000046c       __imp_?dynamicMetaObject@QObjectData@@QBEPAUQMetaObject@@XZ 1004c46c     Qt5Core:Qt5Core.dll
 0004:00000470       __imp_??0QObject@@QAE@PAV0@@Z 1004c470     Qt5Core:Qt5Core.dll
 0004:00000474       __imp_??1QVariant@@QAE@XZ  1004c474     Qt5Core:Qt5Core.dll
 0004:00000478       __imp_??0QVariant@@QAE@ABV0@@Z 1004c478     Qt5Core:Qt5Core.dll
 0004:0000047c       __imp_??4QVariant@@QAEAAV0@ABV0@@Z 1004c47c     Qt5Core:Qt5Core.dll
 0004:00000480       __imp_??4QVariant@@QAEAAV0@$$QAV0@@Z 1004c480     Qt5Core:Qt5Core.dll
 0004:00000484       __imp_?childEvent@QObject@@MAEXPAVQChildEvent@@@Z 1004c484     Qt5Core:Qt5Core.dll
 0004:00000488       __imp_?connectNotify@QObject@@MAEXABVQMetaMethod@@@Z 1004c488     Qt5Core:Qt5Core.dll
 0004:0000048c       __imp_?customEvent@QObject@@MAEXPAVQEvent@@@Z 1004c48c     Qt5Core:Qt5Core.dll
 0004:00000490       __imp_?disconnectNotify@QObject@@MAEXABVQMetaMethod@@@Z 1004c490     Qt5Core:Qt5Core.dll
 0004:00000494       __imp_?event@QObject@@UAE_NPAVQEvent@@@Z 1004c494     Qt5Core:Qt5Core.dll
 0004:00000498       __imp_?eventFilter@QObject@@UAE_NPAV1@PAVQEvent@@@Z 1004c498     Qt5Core:Qt5Core.dll
 0004:0000049c       __imp_?timerEvent@QObject@@MAEXPAVQTimerEvent@@@Z 1004c49c     Qt5Core:Qt5Core.dll
 0004:000004a0       __imp_?qt_metacast@QObject@@UAEPAXPBD@Z 1004c4a0     Qt5Core:Qt5Core.dll
 0004:000004a4       __imp_?qt_metacall@QObject@@UAEHW4Call@QMetaObject@@HPAPAX@Z 1004c4a4     Qt5Core:Qt5Core.dll
 0004:000004a8       __imp_?staticMetaObject@QObject@@2UQMetaObject@@B 1004c4a8     Qt5Core:Qt5Core.dll
 0004:000004ac       __imp_?normalizedType@QMetaObject@@SA?AVQByteArray@@PBD@Z 1004c4ac     Qt5Core:Qt5Core.dll
 0004:000004b0       __imp_??1QByteArray@@QAE@XZ 1004c4b0     Qt5Core:Qt5Core.dll
 0004:000004b4       __imp_??0QString@@QAE@ABV0@@Z 1004c4b4     Qt5Core:Qt5Core.dll
 0004:000004b8       __imp_?registerNormalizedType@QMetaType@@SAHABVQByteArray@@P6AXPAX@ZP6APAXPBX@Z2P6APAX13@ZHV?$QFlags@W4TypeFlag@QMetaType@@@@PBUQMetaObject@@@Z 1004c4b8     Qt5Core:Qt5Core.dll
 0004:000004bc       __imp_?registerNormalizedTypedef@QMetaType@@SAHABVQByteArray@@H@Z 1004c4bc     Qt5Core:Qt5Core.dll
 0004:000004c0       __imp_??0QUrl@@QAE@XZ      1004c4c0     Qt5Core:Qt5Core.dll
 0004:000004c4       __imp_??1QUrl@@QAE@XZ      1004c4c4     Qt5Core:Qt5Core.dll
 0004:000004c8       __imp_?className@QMetaObject@@QBEPBDXZ 1004c4c8     Qt5Core:Qt5Core.dll
 0004:000004cc       __imp_??0QByteArray@@QAE@XZ 1004c4cc     Qt5Core:Qt5Core.dll
 0004:000004d0       __imp_?reserve@QByteArray@@QAEXH@Z 1004c4d0     Qt5Core:Qt5Core.dll
 0004:000004d4       __imp_?append@QByteArray@@QAEAAV1@D@Z 1004c4d4     Qt5Core:Qt5Core.dll
 0004:000004d8       __imp_?append@QByteArray@@QAEAAV1@PBD@Z 1004c4d8     Qt5Core:Qt5Core.dll
 0004:000004dc       __imp_??1QString@@QAE@XZ   1004c4dc     Qt5Core:Qt5Core.dll
 0004:000004e0       __imp_??0QVariant@@QAE@H@Z 1004c4e0     Qt5Core:Qt5Core.dll
 0004:000004e4       __imp_??4QString@@QAEAAV0@ABV0@@Z 1004c4e4     Qt5Core:Qt5Core.dll
 0004:000004e8       __imp_??0QMessageLogger@@QAE@PBDH0@Z 1004c4e8     Qt5Core:Qt5Core.dll
 0004:000004ec       __imp_?debug@QMessageLogger@@QBE?AVQDebug@@XZ 1004c4ec     Qt5Core:Qt5Core.dll
 0004:000004f0       __imp_??1Connection@QMetaObject@@QAE@XZ 1004c4f0     Qt5Core:Qt5Core.dll
 0004:000004f4       __imp_??0QChar@@QAE@UQLatin1Char@@@Z 1004c4f4     Qt5Core:Qt5Core.dll
 0004:000004f8       __imp_??0QByteArray@@QAE@PBDH@Z 1004c4f8     Qt5Core:Qt5Core.dll
 0004:000004fc       __imp_??0QString@@QAE@VQLatin1String@@@Z 1004c4fc     Qt5Core:Qt5Core.dll
 0004:00000500       __imp_??0QString@@QAE@$$QAV0@@Z 1004c500     Qt5Core:Qt5Core.dll
 0004:00000504       \177Qt5Core_NULL_THUNK_DATA 1004c504     Qt5Core:Qt5Core.dll
 0004:000005ec       __imp_??0QIcon@@QAE@XZ     1004c5ec     Qt5Gui:Qt5Gui.dll
 0004:000005f0       __imp_?openUrl@QDesktopServices@@SA_NABVQUrl@@@Z 1004c5f0     Qt5Gui:Qt5Gui.dll
 0004:000005f4       __imp_?metaObject@QMovie@@UBEPBUQMetaObject@@XZ 1004c5f4     Qt5Gui:Qt5Gui.dll
 0004:000005f8       __imp_?qt_metacall@QMovie@@UAEHW4Call@QMetaObject@@HPAPAX@Z 1004c5f8     Qt5Gui:Qt5Gui.dll
 0004:000005fc       __imp_?qt_metacast@QMovie@@UAEPAXPBD@Z 1004c5fc     Qt5Gui:Qt5Gui.dll
 0004:00000600       __imp_?start@QMovie@@QAEXXZ 1004c600     Qt5Gui:Qt5Gui.dll
 0004:00000604       __imp_??1QMovie@@UAE@XZ    1004c604     Qt5Gui:Qt5Gui.dll
 0004:00000608       __imp_??0QMovie@@QAE@ABVQString@@ABVQByteArray@@PAVQObject@@@Z 1004c608     Qt5Gui:Qt5Gui.dll
 0004:0000060c       __imp_??0QIcon@@QAE@ABV0@@Z 1004c60c     Qt5Gui:Qt5Gui.dll
 0004:00000610       __imp_??4QIcon@@QAEAAV0@ABV0@@Z 1004c610     Qt5Gui:Qt5Gui.dll
 0004:00000614       __imp_??1QIcon@@QAE@XZ     1004c614     Qt5Gui:Qt5Gui.dll
 0004:00000618       __imp_??0QIcon@@QAE@ABVQString@@@Z 1004c618     Qt5Gui:Qt5Gui.dll
 0004:0000061c       __imp_?stop@QMovie@@QAEXXZ 1004c61c     Qt5Gui:Qt5Gui.dll
 0004:00000620       \177Qt5Gui_NULL_THUNK_DATA 1004c620     Qt5Gui:Qt5Gui.dll
 0004:00000654       __imp_??0QNetworkCookieJar@@QAE@PAVQObject@@@Z 1004c654     Qt5Network:Qt5Network.dll
 0004:00000658       __imp_?parseCookies@QNetworkCookie@@SA?AV?$QList@VQNetworkCookie@@@@ABVQByteArray@@@Z 1004c658     Qt5Network:Qt5Network.dll
 0004:0000065c       __imp_?toRawForm@QNetworkCookie@@QBE?AVQByteArray@@W4RawForm@1@@Z 1004c65c     Qt5Network:Qt5Network.dll
 0004:00000660       __imp_??1QNetworkCookie@@QAE@XZ 1004c660     Qt5Network:Qt5Network.dll
 0004:00000664       __imp_??0QNetworkCookie@@QAE@ABV0@@Z 1004c664     Qt5Network:Qt5Network.dll
 0004:00000668       __imp_?updateMetaData@QNetworkDiskCache@@UAEXABVQNetworkCacheMetaData@@@Z 1004c668     Qt5Network:Qt5Network.dll
 0004:0000066c       __imp_?remove@QNetworkDiskCache@@UAE_NABVQUrl@@@Z 1004c66c     Qt5Network:Qt5Network.dll
 0004:00000670       __imp_?qt_metacast@QNetworkDiskCache@@UAEPAXPBD@Z 1004c670     Qt5Network:Qt5Network.dll
 0004:00000674       __imp_?qt_metacast@QNetworkAccessManager@@UAEPAXPBD@Z 1004c674     Qt5Network:Qt5Network.dll
 0004:00000678       __imp_?qt_metacall@QNetworkDiskCache@@UAEHW4Call@QMetaObject@@HPAPAX@Z 1004c678     Qt5Network:Qt5Network.dll
 0004:0000067c       __imp_?qt_metacall@QNetworkAccessManager@@UAEHW4Call@QMetaObject@@HPAPAX@Z 1004c67c     Qt5Network:Qt5Network.dll
 0004:00000680       __imp_?prepare@QNetworkDiskCache@@UAEPAVQIODevice@@ABVQNetworkCacheMetaData@@@Z 1004c680     Qt5Network:Qt5Network.dll
 0004:00000684       __imp_?metaObject@QNetworkDiskCache@@UBEPBUQMetaObject@@XZ 1004c684     Qt5Network:Qt5Network.dll
 0004:00000688       __imp_?metaObject@QNetworkAccessManager@@UBEPBUQMetaObject@@XZ 1004c688     Qt5Network:Qt5Network.dll
 0004:0000068c       __imp_?metaData@QNetworkDiskCache@@UAE?AVQNetworkCacheMetaData@@ABVQUrl@@@Z 1004c68c     Qt5Network:Qt5Network.dll
 0004:00000690       __imp_?insert@QNetworkDiskCache@@UAEXPAVQIODevice@@@Z 1004c690     Qt5Network:Qt5Network.dll
 0004:00000694       __imp_?expire@QNetworkDiskCache@@MAE_JXZ 1004c694     Qt5Network:Qt5Network.dll
 0004:00000698       __imp_?data@QNetworkDiskCache@@UAEPAVQIODevice@@ABVQUrl@@@Z 1004c698     Qt5Network:Qt5Network.dll
 0004:0000069c       __imp_?createRequest@QNetworkAccessManager@@MAEPAVQNetworkReply@@W4Operation@1@ABVQNetworkRequest@@PAVQIODevice@@@Z 1004c69c     Qt5Network:Qt5Network.dll
 0004:000006a0       __imp_?clear@QNetworkDiskCache@@UAEXXZ 1004c6a0     Qt5Network:Qt5Network.dll
 0004:000006a4       __imp_?cacheSize@QNetworkDiskCache@@UBE_JXZ 1004c6a4     Qt5Network:Qt5Network.dll
 0004:000006a8       __imp_??1QNetworkCookieJar@@UAE@XZ 1004c6a8     Qt5Network:Qt5Network.dll
 0004:000006ac       __imp_?rawHeader@QNetworkReply@@QBE?AVQByteArray@@ABV2@@Z 1004c6ac     Qt5Network:Qt5Network.dll
 0004:000006b0       __imp_?rawHeaderList@QNetworkReply@@QBE?AV?$QList@VQByteArray@@@@XZ 1004c6b0     Qt5Network:Qt5Network.dll
 0004:000006b4       __imp_?header@QNetworkReply@@QBE?AVQVariant@@W4KnownHeaders@QNetworkRequest@@@Z 1004c6b4     Qt5Network:Qt5Network.dll
 0004:000006b8       __imp_?url@QNetworkReply@@QBE?AVQUrl@@XZ 1004c6b8     Qt5Network:Qt5Network.dll
 0004:000006bc       __imp_?setMaximumCacheSize@QNetworkDiskCache@@QAEX_J@Z 1004c6bc     Qt5Network:Qt5Network.dll
 0004:000006c0       __imp_?setCacheDirectory@QNetworkDiskCache@@QAEXABVQString@@@Z 1004c6c0     Qt5Network:Qt5Network.dll
 0004:000006c4       __imp_??1QNetworkDiskCache@@UAE@XZ 1004c6c4     Qt5Network:Qt5Network.dll
 0004:000006c8       __imp_??0QNetworkDiskCache@@QAE@PAVQObject@@@Z 1004c6c8     Qt5Network:Qt5Network.dll
 0004:000006cc       __imp_?setNetworkAccessible@QNetworkAccessManager@@QAEXW4NetworkAccessibility@1@@Z 1004c6cc     Qt5Network:Qt5Network.dll
 0004:000006d0       __imp_?get@QNetworkAccessManager@@QAEPAVQNetworkReply@@ABVQNetworkRequest@@@Z 1004c6d0     Qt5Network:Qt5Network.dll
 0004:000006d4       __imp_?setCookieJar@QNetworkAccessManager@@QAEXPAVQNetworkCookieJar@@@Z 1004c6d4     Qt5Network:Qt5Network.dll
 0004:000006d8       __imp_?setCache@QNetworkAccessManager@@QAEXPAVQAbstractNetworkCache@@@Z 1004c6d8     Qt5Network:Qt5Network.dll
 0004:000006dc       __imp_??1QNetworkAccessManager@@UAE@XZ 1004c6dc     Qt5Network:Qt5Network.dll
 0004:000006e0       __imp_??0QNetworkAccessManager@@QAE@PAVQObject@@@Z 1004c6e0     Qt5Network:Qt5Network.dll
 0004:000006e4       __imp_?url@QNetworkRequest@@QBE?AVQUrl@@XZ 1004c6e4     Qt5Network:Qt5Network.dll
 0004:000006e8       __imp_?staticMetaObject@QNetworkReply@@2UQMetaObject@@B 1004c6e8     Qt5Network:Qt5Network.dll
 0004:000006ec       __imp_?staticMetaObject@QNetworkCookieJar@@2UQMetaObject@@B 1004c6ec     Qt5Network:Qt5Network.dll
 0004:000006f0       __imp_?qt_metacall@QNetworkCookieJar@@UAEHW4Call@QMetaObject@@HPAPAX@Z 1004c6f0     Qt5Network:Qt5Network.dll
 0004:000006f4       __imp_?qt_metacast@QNetworkCookieJar@@UAEPAXPBD@Z 1004c6f4     Qt5Network:Qt5Network.dll
 0004:000006f8       __imp_??1QNetworkRequest@@QAE@XZ 1004c6f8     Qt5Network:Qt5Network.dll
 0004:000006fc       __imp_??0QNetworkRequest@@QAE@ABV0@@Z 1004c6fc     Qt5Network:Qt5Network.dll
 0004:00000700       __imp_??0QNetworkRequest@@QAE@ABVQUrl@@@Z 1004c700     Qt5Network:Qt5Network.dll
 0004:00000704       __imp_?cookiesForUrl@QNetworkCookieJar@@UBE?AV?$QList@VQNetworkCookie@@@@ABVQUrl@@@Z 1004c704     Qt5Network:Qt5Network.dll
 0004:00000708       __imp_?setCookiesFromUrl@QNetworkCookieJar@@UAE_NABV?$QList@VQNetworkCookie@@@@ABVQUrl@@@Z 1004c708     Qt5Network:Qt5Network.dll
 0004:0000070c       __imp_?allCookies@QNetworkCookieJar@@IBE?AV?$QList@VQNetworkCookie@@@@XZ 1004c70c     Qt5Network:Qt5Network.dll
 0004:00000710       __imp_?setAllCookies@QNetworkCookieJar@@IAEXABV?$QList@VQNetworkCookie@@@@@Z 1004c710     Qt5Network:Qt5Network.dll
 0004:00000714       __imp_?deleteCookie@QNetworkCookieJar@@UAE_NABVQNetworkCookie@@@Z 1004c714     Qt5Network:Qt5Network.dll
 0004:00000718       __imp_?insertCookie@QNetworkCookieJar@@UAE_NABVQNetworkCookie@@@Z 1004c718     Qt5Network:Qt5Network.dll
 0004:0000071c       __imp_?updateCookie@QNetworkCookieJar@@UAE_NABVQNetworkCookie@@@Z 1004c71c     Qt5Network:Qt5Network.dll
 0004:00000720       __imp_?validateCookie@QNetworkCookieJar@@MBE_NABVQNetworkCookie@@ABVQUrl@@@Z 1004c720     Qt5Network:Qt5Network.dll
 0004:00000724       __imp_?error@QNetworkReply@@QBE?AW4NetworkError@1@XZ 1004c724     Qt5Network:Qt5Network.dll
 0004:00000728       __imp_?setUrl@QNetworkRequest@@QAEXABVQUrl@@@Z 1004c728     Qt5Network:Qt5Network.dll
 0004:0000072c       __imp_?setHeader@QNetworkRequest@@QAEXW4KnownHeaders@1@ABVQVariant@@@Z 1004c72c     Qt5Network:Qt5Network.dll
 0004:00000730       __imp_?post@QNetworkAccessManager@@QAEPAVQNetworkReply@@ABVQNetworkRequest@@ABVQByteArray@@@Z 1004c730     Qt5Network:Qt5Network.dll
 0004:00000734       __imp_?attribute@QNetworkReply@@QBE?AVQVariant@@W4Attribute@QNetworkRequest@@@Z 1004c734     Qt5Network:Qt5Network.dll
 0004:00000738       \177Qt5Network_NULL_THUNK_DATA 1004c738     Qt5Network:Qt5Network.dll
 0004:00000790       __imp_?done@QPrintPreviewDialog@@UAEXH@Z 1004c790     Qt5PrintSupport:Qt5PrintSupport.dll
 0004:00000794       __imp_?metaObject@QPrintPreviewDialog@@UBEPBUQMetaObject@@XZ 1004c794     Qt5PrintSupport:Qt5PrintSupport.dll
 0004:00000798       __imp_?qt_metacall@QPrintPreviewDialog@@UAEHW4Call@QMetaObject@@HPAPAX@Z 1004c798     Qt5PrintSupport:Qt5PrintSupport.dll
 0004:0000079c       __imp_?qt_metacast@QPrintPreviewDialog@@UAEPAXPBD@Z 1004c79c     Qt5PrintSupport:Qt5PrintSupport.dll
 0004:000007a0       __imp_?setVisible@QPrintPreviewDialog@@UAEX_N@Z 1004c7a0     Qt5PrintSupport:Qt5PrintSupport.dll
 0004:000007a4       __imp_??1QPrintPreviewDialog@@UAE@XZ 1004c7a4     Qt5PrintSupport:Qt5PrintSupport.dll
 0004:000007a8       __imp_??0QPrintPreviewDialog@@QAE@PAVQWidget@@V?$QFlags@W4WindowType@Qt@@@@@Z 1004c7a8     Qt5PrintSupport:Qt5PrintSupport.dll
 0004:000007ac       \177Qt5PrintSupport_NULL_THUNK_DATA 1004c7ac     Qt5PrintSupport:Qt5PrintSupport.dll
 0004:000007dc       __imp_?next@QSqlQuery@@QAE_NXZ 1004c7dc     Qt5Sql:Qt5Sql.dll
 0004:000007e0       __imp_?value@QSqlQuery@@QBE?AVQVariant@@H@Z 1004c7e0     Qt5Sql:Qt5Sql.dll
 0004:000007e4       __imp_?exec@QSqlQuery@@QAE_NABVQString@@@Z 1004c7e4     Qt5Sql:Qt5Sql.dll
 0004:000007e8       __imp_??1QSqlQuery@@QAE@XZ 1004c7e8     Qt5Sql:Qt5Sql.dll
 0004:000007ec       __imp_??0QSqlQuery@@QAE@ABVQString@@VQSqlDatabase@@@Z 1004c7ec     Qt5Sql:Qt5Sql.dll
 0004:000007f0       __imp_??1QSqlDatabase@@QAE@XZ 1004c7f0     Qt5Sql:Qt5Sql.dll
 0004:000007f4       __imp_??0QSqlDatabase@@QAE@XZ 1004c7f4     Qt5Sql:Qt5Sql.dll
 0004:000007f8       __imp_?previous@QSqlQuery@@QAE_NXZ 1004c7f8     Qt5Sql:Qt5Sql.dll
 0004:000007fc       \177Qt5Sql_NULL_THUNK_DATA 1004c7fc     Qt5Sql:Qt5Sql.dll
 0004:0000082c       __imp_?qt_metacast@QWebPluginFactory@@UAEPAXPBD@Z 1004c82c     Qt5WebKit:Qt5WebKit.dll
 0004:00000830       __imp_?staticMetaObject@QWebPluginFactory@@2UQMetaObject@@B 1004c830     Qt5WebKit:Qt5WebKit.dll
 0004:00000834       __imp_?globalSettings@QWebSettings@@SAPAV1@XZ 1004c834     Qt5WebKit:Qt5WebKit.dll
 0004:00000838       __imp_?setAttribute@QWebSettings@@QAEXW4WebAttribute@1@_N@Z 1004c838     Qt5WebKit:Qt5WebKit.dll
 0004:0000083c       __imp_?enablePersistentStorage@QWebSettings@@SAXABVQString@@@Z 1004c83c     Qt5WebKit:Qt5WebKit.dll
 0004:00000840       __imp_??1MimeType@QWebPluginFactory@@QAE@XZ 1004c840     Qt5WebKit:Qt5WebKit.dll
 0004:00000844       __imp_??0MimeType@QWebPluginFactory@@QAE@ABU01@@Z 1004c844     Qt5WebKit:Qt5WebKit.dll
 0004:00000848       __imp_??0QWebPluginFactory@@QAE@PAVQObject@@@Z 1004c848     Qt5WebKit:Qt5WebKit.dll
 0004:0000084c       __imp_??1QWebPluginFactory@@UAE@XZ 1004c84c     Qt5WebKit:Qt5WebKit.dll
 0004:00000850       __imp_?refreshPlugins@QWebPluginFactory@@UAEXXZ 1004c850     Qt5WebKit:Qt5WebKit.dll
 0004:00000854       __imp_?clearMemoryCaches@QWebSettings@@SAXXZ 1004c854     Qt5WebKit:Qt5WebKit.dll
 0004:00000858       __imp_?qt_metacall@QWebPluginFactory@@UAEHW4Call@QMetaObject@@HPAPAX@Z 1004c858     Qt5WebKit:Qt5WebKit.dll
 0004:0000085c       \177Qt5WebKit_NULL_THUNK_DATA 1004c85c     Qt5WebKit:Qt5WebKit.dll
 0004:00000890       __imp_?javaScriptConsoleMessage@QWebPage@@MAEXABVQString@@H0@Z 1004c890     Qt5WebKitWidgets:Qt5WebKitWidgets.dll
 0004:00000894       __imp_?javaScriptConfirm@QWebPage@@MAE_NPAVQWebFrame@@ABVQString@@@Z 1004c894     Qt5WebKitWidgets:Qt5WebKitWidgets.dll
 0004:00000898       __imp_?javaScriptAlert@QWebPage@@MAEXPAVQWebFrame@@ABVQString@@@Z 1004c898     Qt5WebKitWidgets:Qt5WebKitWidgets.dll
 0004:0000089c       __imp_?extension@QWebPage@@UAE_NW4Extension@1@PBVExtensionOption@1@PAVExtensionReturn@1@@Z 1004c89c     Qt5WebKitWidgets:Qt5WebKitWidgets.dll
 0004:000008a0       __imp_?event@QWebPage@@UAE_NPAVQEvent@@@Z 1004c8a0     Qt5WebKitWidgets:Qt5WebKitWidgets.dll
 0004:000008a4       __imp_?createWindow@QWebPage@@MAEPAV1@W4WebWindowType@1@@Z 1004c8a4     Qt5WebKitWidgets:Qt5WebKitWidgets.dll
 0004:000008a8       __imp_?createPlugin@QWebPage@@MAEPAVQObject@@ABVQString@@ABVQUrl@@ABVQStringList@@2@Z 1004c8a8     Qt5WebKitWidgets:Qt5WebKitWidgets.dll
 0004:000008ac       __imp_?chooseFile@QWebPage@@MAE?AVQString@@PAVQWebFrame@@ABV2@@Z 1004c8ac     Qt5WebKitWidgets:Qt5WebKitWidgets.dll
 0004:000008b0       __imp_?acceptNavigationRequest@QWebPage@@MAE_NPAVQWebFrame@@ABVQNetworkRequest@@W4NavigationType@1@@Z 1004c8b0     Qt5WebKitWidgets:Qt5WebKitWidgets.dll
 0004:000008b4       __imp_?downloadRequested@QWebPage@@QAEXABVQNetworkRequest@@@Z 1004c8b4     Qt5WebKitWidgets:Qt5WebKitWidgets.dll
 0004:000008b8       __imp_?linkClicked@QWebPage@@QAEXABVQUrl@@@Z 1004c8b8     Qt5WebKitWidgets:Qt5WebKitWidgets.dll
 0004:000008bc       __imp_?setFeaturePermission@QWebPage@@QAEXPAVQWebFrame@@W4Feature@1@W4PermissionPolicy@1@@Z 1004c8bc     Qt5WebKitWidgets:Qt5WebKitWidgets.dll
 0004:000008c0       __imp_?setForwardUnsupportedContent@QWebPage@@QAEX_N@Z 1004c8c0     Qt5WebKitWidgets:Qt5WebKitWidgets.dll
 0004:000008c4       __imp_?currentFrame@QWebPage@@QBEPAVQWebFrame@@XZ 1004c8c4     Qt5WebKitWidgets:Qt5WebKitWidgets.dll
 0004:000008c8       __imp_??1QWebPage@@UAE@XZ  1004c8c8     Qt5WebKitWidgets:Qt5WebKitWidgets.dll
 0004:000008cc       __imp_??0QWebPage@@QAE@PAVQObject@@@Z 1004c8cc     Qt5WebKitWidgets:Qt5WebKitWidgets.dll
 0004:000008d0       __imp_?setUrl@QWebView@@QAEXABVQUrl@@@Z 1004c8d0     Qt5WebKitWidgets:Qt5WebKitWidgets.dll
 0004:000008d4       __imp_?wheelEvent@QWebView@@MAEXPAVQWheelEvent@@@Z 1004c8d4     Qt5WebKitWidgets:Qt5WebKitWidgets.dll
 0004:000008d8       __imp_?sizeHint@QWebView@@UBE?AVQSize@@XZ 1004c8d8     Qt5WebKitWidgets:Qt5WebKitWidgets.dll
 0004:000008dc       __imp_?resizeEvent@QWebView@@MAEXPAVQResizeEvent@@@Z 1004c8dc     Qt5WebKitWidgets:Qt5WebKitWidgets.dll
 0004:000008e0       __imp_?paintEvent@QWebView@@MAEXPAVQPaintEvent@@@Z 1004c8e0     Qt5WebKitWidgets:Qt5WebKitWidgets.dll
 0004:000008e4       __imp_?mouseReleaseEvent@QWebView@@MAEXPAVQMouseEvent@@@Z 1004c8e4     Qt5WebKitWidgets:Qt5WebKitWidgets.dll
 0004:000008e8       __imp_?mousePressEvent@QWebView@@MAEXPAVQMouseEvent@@@Z 1004c8e8     Qt5WebKitWidgets:Qt5WebKitWidgets.dll
 0004:000008ec       __imp_?mouseMoveEvent@QWebView@@MAEXPAVQMouseEvent@@@Z 1004c8ec     Qt5WebKitWidgets:Qt5WebKitWidgets.dll
 0004:000008f0       __imp_?mouseDoubleClickEvent@QWebView@@MAEXPAVQMouseEvent@@@Z 1004c8f0     Qt5WebKitWidgets:Qt5WebKitWidgets.dll
 0004:000008f4       __imp_?keyReleaseEvent@QWebView@@MAEXPAVQKeyEvent@@@Z 1004c8f4     Qt5WebKitWidgets:Qt5WebKitWidgets.dll
 0004:000008f8       __imp_?keyPressEvent@QWebView@@MAEXPAVQKeyEvent@@@Z 1004c8f8     Qt5WebKitWidgets:Qt5WebKitWidgets.dll
 0004:000008fc       __imp_?javaScriptPrompt@QWebPage@@MAE_NPAVQWebFrame@@ABVQString@@1PAV3@@Z 1004c8fc     Qt5WebKitWidgets:Qt5WebKitWidgets.dll
 0004:00000900       __imp_?inputMethodEvent@QWebView@@MAEXPAVQInputMethodEvent@@@Z 1004c900     Qt5WebKitWidgets:Qt5WebKitWidgets.dll
 0004:00000904       __imp_?focusOutEvent@QWebView@@MAEXPAVQFocusEvent@@@Z 1004c904     Qt5WebKitWidgets:Qt5WebKitWidgets.dll
 0004:00000908       __imp_?focusNextPrevChild@QWebView@@MAE_N_N@Z 1004c908     Qt5WebKitWidgets:Qt5WebKitWidgets.dll
 0004:0000090c       __imp_?focusInEvent@QWebView@@MAEXPAVQFocusEvent@@@Z 1004c90c     Qt5WebKitWidgets:Qt5WebKitWidgets.dll
 0004:00000910       __imp_?dropEvent@QWebView@@MAEXPAVQDropEvent@@@Z 1004c910     Qt5WebKitWidgets:Qt5WebKitWidgets.dll
 0004:00000914       __imp_?dragMoveEvent@QWebView@@MAEXPAVQDragMoveEvent@@@Z 1004c914     Qt5WebKitWidgets:Qt5WebKitWidgets.dll
 0004:00000918       __imp_?dragLeaveEvent@QWebView@@MAEXPAVQDragLeaveEvent@@@Z 1004c918     Qt5WebKitWidgets:Qt5WebKitWidgets.dll
 0004:0000091c       __imp_?dragEnterEvent@QWebView@@MAEXPAVQDragEnterEvent@@@Z 1004c91c     Qt5WebKitWidgets:Qt5WebKitWidgets.dll
 0004:00000920       __imp_?createWindow@QWebView@@MAEPAV1@W4WebWindowType@QWebPage@@@Z 1004c920     Qt5WebKitWidgets:Qt5WebKitWidgets.dll
 0004:00000924       __imp_?contextMenuEvent@QWebView@@MAEXPAVQContextMenuEvent@@@Z 1004c924     Qt5WebKitWidgets:Qt5WebKitWidgets.dll
 0004:00000928       __imp_?changeEvent@QWebView@@MAEXPAVQEvent@@@Z 1004c928     Qt5WebKitWidgets:Qt5WebKitWidgets.dll
 0004:0000092c       __imp_?event@QWebView@@UAE_NPAVQEvent@@@Z 1004c92c     Qt5WebKitWidgets:Qt5WebKitWidgets.dll
 0004:00000930       __imp_?setRenderHints@QWebView@@QAEXV?$QFlags@W4RenderHint@QPainter@@@@@Z 1004c930     Qt5WebKitWidgets:Qt5WebKitWidgets.dll
 0004:00000934       __imp_?load@QWebView@@QAEXABVQUrl@@@Z 1004c934     Qt5WebKitWidgets:Qt5WebKitWidgets.dll
 0004:00000938       __imp_?setPage@QWebView@@QAEXPAVQWebPage@@@Z 1004c938     Qt5WebKitWidgets:Qt5WebKitWidgets.dll
 0004:0000093c       __imp_?page@QWebView@@QBEPAVQWebPage@@XZ 1004c93c     Qt5WebKitWidgets:Qt5WebKitWidgets.dll
 0004:00000940       __imp_??1QWebView@@UAE@XZ  1004c940     Qt5WebKitWidgets:Qt5WebKitWidgets.dll
 0004:00000944       __imp_??0QWebView@@QAE@PAVQWidget@@@Z 1004c944     Qt5WebKitWidgets:Qt5WebKitWidgets.dll
 0004:00000948       __imp_?setPluginFactory@QWebPage@@QAEXPAVQWebPluginFactory@@@Z 1004c948     Qt5WebKitWidgets:Qt5WebKitWidgets.dll
 0004:0000094c       __imp_?networkAccessManager@QWebPage@@QBEPAVQNetworkAccessManager@@XZ 1004c94c     Qt5WebKitWidgets:Qt5WebKitWidgets.dll
 0004:00000950       __imp_?staticMetaObject@QWebFrame@@2UQMetaObject@@B 1004c950     Qt5WebKitWidgets:Qt5WebKitWidgets.dll
 0004:00000954       __imp_?staticMetaObject@QWebPage@@2UQMetaObject@@B 1004c954     Qt5WebKitWidgets:Qt5WebKitWidgets.dll
 0004:00000958       __imp_?qt_metacall@QWebPage@@UAEHW4Call@QMetaObject@@HPAPAX@Z 1004c958     Qt5WebKitWidgets:Qt5WebKitWidgets.dll
 0004:0000095c       __imp_?qt_metacast@QWebPage@@UAEPAXPBD@Z 1004c95c     Qt5WebKitWidgets:Qt5WebKitWidgets.dll
 0004:00000960       __imp_?staticMetaObject@QWebView@@2UQMetaObject@@B 1004c960     Qt5WebKitWidgets:Qt5WebKitWidgets.dll
 0004:00000964       __imp_?qt_metacall@QWebView@@UAEHW4Call@QMetaObject@@HPAPAX@Z 1004c964     Qt5WebKitWidgets:Qt5WebKitWidgets.dll
 0004:00000968       __imp_?qt_metacast@QWebView@@UAEPAXPBD@Z 1004c968     Qt5WebKitWidgets:Qt5WebKitWidgets.dll
 0004:0000096c       __imp_?shouldInterruptJavaScript@QWebPage@@UAE_NXZ 1004c96c     Qt5WebKitWidgets:Qt5WebKitWidgets.dll
 0004:00000970       __imp_?supportsExtension@QWebPage@@UBE_NW4Extension@1@@Z 1004c970     Qt5WebKitWidgets:Qt5WebKitWidgets.dll
 0004:00000974       __imp_?triggerAction@QWebPage@@UAEXW4WebAction@1@_N@Z 1004c974     Qt5WebKitWidgets:Qt5WebKitWidgets.dll
 0004:00000978       __imp_?userAgentForUrl@QWebPage@@MBE?AVQString@@ABVQUrl@@@Z 1004c978     Qt5WebKitWidgets:Qt5WebKitWidgets.dll
 0004:0000097c       __imp_?mainFrame@QWebPage@@QBEPAVQWebFrame@@XZ 1004c97c     Qt5WebKitWidgets:Qt5WebKitWidgets.dll
 0004:00000980       __imp_?toHtml@QWebFrame@@QBE?AVQString@@XZ 1004c980     Qt5WebKitWidgets:Qt5WebKitWidgets.dll
 0004:00000984       __imp_?evaluateJavaScript@QWebFrame@@QAE?AVQVariant@@ABVQString@@@Z 1004c984     Qt5WebKitWidgets:Qt5WebKitWidgets.dll
 0004:00000988       __imp_?setHtml@QWebView@@QAEXABVQString@@ABVQUrl@@@Z 1004c988     Qt5WebKitWidgets:Qt5WebKitWidgets.dll
 0004:0000098c       __imp_?url@QWebView@@QBE?AVQUrl@@XZ 1004c98c     Qt5WebKitWidgets:Qt5WebKitWidgets.dll
 0004:00000990       __imp_?stop@QWebView@@QAEXXZ 1004c990     Qt5WebKitWidgets:Qt5WebKitWidgets.dll
 0004:00000994       __imp_?reload@QWebView@@QAEXXZ 1004c994     Qt5WebKitWidgets:Qt5WebKitWidgets.dll
 0004:00000998       __imp_?inputMethodQuery@QWebView@@UBE?AVQVariant@@W4InputMethodQuery@Qt@@@Z 1004c998     Qt5WebKitWidgets:Qt5WebKitWidgets.dll
 0004:0000099c       __imp_?addToJavaScriptWindowObject@QWebFrame@@QAEXABVQString@@PAVQObject@@W4ValueOwnership@1@@Z 1004c99c     Qt5WebKitWidgets:Qt5WebKitWidgets.dll
 0004:000009a0       \177Qt5WebKitWidgets_NULL_THUNK_DATA 1004c9a0     Qt5WebKitWidgets:Qt5WebKitWidgets.dll
 0004:00000a00       __imp_?qt_metacast@QAction@@UAEPAXPBD@Z 1004ca00     Qt5Widgets:Qt5Widgets.dll
 0004:00000a04       __imp_?qt_metacall@QSystemTrayIcon@@UAEHW4Call@QMetaObject@@HPAPAX@Z 1004ca04     Qt5Widgets:Qt5Widgets.dll
 0004:00000a08       __imp_?qt_metacall@QMenu@@UAEHW4Call@QMetaObject@@HPAPAX@Z 1004ca08     Qt5Widgets:Qt5Widgets.dll
 0004:00000a0c       __imp_?qt_metacall@QAction@@UAEHW4Call@QMetaObject@@HPAPAX@Z 1004ca0c     Qt5Widgets:Qt5Widgets.dll
 0004:00000a10       __imp_?paintEvent@QWidget@@MAEXPAVQPaintEvent@@@Z 1004ca10     Qt5Widgets:Qt5Widgets.dll
 0004:00000a14       __imp_?paintEvent@QMenu@@MAEXPAVQPaintEvent@@@Z 1004ca14     Qt5Widgets:Qt5Widgets.dll
 0004:00000a18       __imp_?paintEngine@QWidget@@UBEPAVQPaintEngine@@XZ 1004ca18     Qt5Widgets:Qt5Widgets.dll
 0004:00000a1c       __imp_?nativeEvent@QWidget@@MAE_NABVQByteArray@@PAXPAJ@Z 1004ca1c     Qt5Widgets:Qt5Widgets.dll
 0004:00000a20       __imp_?moveEvent@QWidget@@MAEXPAVQMoveEvent@@@Z 1004ca20     Qt5Widgets:Qt5Widgets.dll
 0004:00000a24       __imp_?mouseReleaseEvent@QWidget@@MAEXPAVQMouseEvent@@@Z 1004ca24     Qt5Widgets:Qt5Widgets.dll
 0004:00000a28       __imp_?mouseReleaseEvent@QMenu@@MAEXPAVQMouseEvent@@@Z 1004ca28     Qt5Widgets:Qt5Widgets.dll
 0004:00000a2c       __imp_?mousePressEvent@QWidget@@MAEXPAVQMouseEvent@@@Z 1004ca2c     Qt5Widgets:Qt5Widgets.dll
 0004:00000a30       __imp_?mousePressEvent@QMenu@@MAEXPAVQMouseEvent@@@Z 1004ca30     Qt5Widgets:Qt5Widgets.dll
 0004:00000a34       __imp_?mouseMoveEvent@QWidget@@MAEXPAVQMouseEvent@@@Z 1004ca34     Qt5Widgets:Qt5Widgets.dll
 0004:00000a38       __imp_?mouseMoveEvent@QMenu@@MAEXPAVQMouseEvent@@@Z 1004ca38     Qt5Widgets:Qt5Widgets.dll
 0004:00000a3c       __imp_?mouseDoubleClickEvent@QWidget@@MAEXPAVQMouseEvent@@@Z 1004ca3c     Qt5Widgets:Qt5Widgets.dll
 0004:00000a40       __imp_?minimumSizeHint@QWidget@@UBE?AVQSize@@XZ 1004ca40     Qt5Widgets:Qt5Widgets.dll
 0004:00000a44       __imp_?metric@QWidget@@MBEHW4PaintDeviceMetric@QPaintDevice@@@Z 1004ca44     Qt5Widgets:Qt5Widgets.dll
 0004:00000a48       __imp_?metaObject@QSystemTrayIcon@@UBEPBUQMetaObject@@XZ 1004ca48     Qt5Widgets:Qt5Widgets.dll
 0004:00000a4c       __imp_?qt_metacast@QMenu@@UAEPAXPBD@Z 1004ca4c     Qt5Widgets:Qt5Widgets.dll
 0004:00000a50       __imp_?metaObject@QAction@@UBEPBUQMetaObject@@XZ 1004ca50     Qt5Widgets:Qt5Widgets.dll
 0004:00000a54       __imp_?leaveEvent@QWidget@@MAEXPAVQEvent@@@Z 1004ca54     Qt5Widgets:Qt5Widgets.dll
 0004:00000a58       __imp_?leaveEvent@QMenu@@MAEXPAVQEvent@@@Z 1004ca58     Qt5Widgets:Qt5Widgets.dll
 0004:00000a5c       __imp_?keyReleaseEvent@QWidget@@MAEXPAVQKeyEvent@@@Z 1004ca5c     Qt5Widgets:Qt5Widgets.dll
 0004:00000a60       __imp_?keyPressEvent@QWidget@@MAEXPAVQKeyEvent@@@Z 1004ca60     Qt5Widgets:Qt5Widgets.dll
 0004:00000a64       __imp_?keyPressEvent@QMenu@@MAEXPAVQKeyEvent@@@Z 1004ca64     Qt5Widgets:Qt5Widgets.dll
 0004:00000a68       __imp_?minimumSizeHint@QLabel@@UBE?AVQSize@@XZ 1004ca68     Qt5Widgets:Qt5Widgets.dll
 0004:00000a6c       __imp_?mouseMoveEvent@QLabel@@MAEXPAVQMouseEvent@@@Z 1004ca6c     Qt5Widgets:Qt5Widgets.dll
 0004:00000a70       __imp_?mousePressEvent@QLabel@@MAEXPAVQMouseEvent@@@Z 1004ca70     Qt5Widgets:Qt5Widgets.dll
 0004:00000a74       __imp_?mouseReleaseEvent@QLabel@@MAEXPAVQMouseEvent@@@Z 1004ca74     Qt5Widgets:Qt5Widgets.dll
 0004:00000a78       __imp_?open@QDialog@@UAEXXZ 1004ca78     Qt5Widgets:Qt5Widgets.dll
 0004:00000a7c       __imp_?paintEvent@QLabel@@MAEXPAVQPaintEvent@@@Z 1004ca7c     Qt5Widgets:Qt5Widgets.dll
 0004:00000a80       __imp_?qt_metacall@QBoxLayout@@UAEHW4Call@QMetaObject@@HPAPAX@Z 1004ca80     Qt5Widgets:Qt5Widgets.dll
 0004:00000a84       __imp_?qt_metacall@QLabel@@UAEHW4Call@QMetaObject@@HPAPAX@Z 1004ca84     Qt5Widgets:Qt5Widgets.dll
 0004:00000a88       __imp_?qt_metacast@QBoxLayout@@UAEPAXPBD@Z 1004ca88     Qt5Widgets:Qt5Widgets.dll
 0004:00000a8c       __imp_?qt_metacast@QLabel@@UAEPAXPBD@Z 1004ca8c     Qt5Widgets:Qt5Widgets.dll
 0004:00000a90       __imp_?reject@QDialog@@UAEXXZ 1004ca90     Qt5Widgets:Qt5Widgets.dll
 0004:00000a94       __imp_?resizeEvent@QDialog@@MAEXPAVQResizeEvent@@@Z 1004ca94     Qt5Widgets:Qt5Widgets.dll
 0004:00000a98       __imp_?setGeometry@QBoxLayout@@UAEXABVQRect@@@Z 1004ca98     Qt5Widgets:Qt5Widgets.dll
 0004:00000a9c       __imp_?showEvent@QDialog@@MAEXPAVQShowEvent@@@Z 1004ca9c     Qt5Widgets:Qt5Widgets.dll
 0004:00000aa0       __imp_?qt_metacast@QSystemTrayIcon@@UAEPAXPBD@Z 1004caa0     Qt5Widgets:Qt5Widgets.dll
 0004:00000aa4       __imp_?redirected@QWidget@@MBEPAVQPaintDevice@@PAVQPoint@@@Z 1004caa4     Qt5Widgets:Qt5Widgets.dll
 0004:00000aa8       __imp_?resizeEvent@QWidget@@MAEXPAVQResizeEvent@@@Z 1004caa8     Qt5Widgets:Qt5Widgets.dll
 0004:00000aac       __imp_?setVisible@QWidget@@UAEX_N@Z 1004caac     Qt5Widgets:Qt5Widgets.dll
 0004:00000ab0       __imp_?sharedPainter@QWidget@@MBEPAVQPainter@@XZ 1004cab0     Qt5Widgets:Qt5Widgets.dll
 0004:00000ab4       __imp_?showEvent@QWidget@@MAEXPAVQShowEvent@@@Z 1004cab4     Qt5Widgets:Qt5Widgets.dll
 0004:00000ab8       __imp_?sizeHint@QMenu@@UBE?AVQSize@@XZ 1004cab8     Qt5Widgets:Qt5Widgets.dll
 0004:00000abc       __imp_?sizeHint@QWidget@@UBE?AVQSize@@XZ 1004cabc     Qt5Widgets:Qt5Widgets.dll
 0004:00000ac0       __imp_?tabletEvent@QWidget@@MAEXPAVQTabletEvent@@@Z 1004cac0     Qt5Widgets:Qt5Widgets.dll
 0004:00000ac4       __imp_?timerEvent@QMenu@@MAEXPAVQTimerEvent@@@Z 1004cac4     Qt5Widgets:Qt5Widgets.dll
 0004:00000ac8       __imp_?wheelEvent@QMenu@@MAEXPAVQWheelEvent@@@Z 1004cac8     Qt5Widgets:Qt5Widgets.dll
 0004:00000acc       __imp_?wheelEvent@QWidget@@MAEXPAVQWheelEvent@@@Z 1004cacc     Qt5Widgets:Qt5Widgets.dll
 0004:00000ad0       __imp_?winId@QWidget@@QBEIXZ 1004cad0     Qt5Widgets:Qt5Widgets.dll
 0004:00000ad4       __imp_?setStyleSheet@QWidget@@QAEXABVQString@@@Z 1004cad4     Qt5Widgets:Qt5Widgets.dll
 0004:00000ad8       __imp_?minimumSizeHint@QDialog@@UBE?AVQSize@@XZ 1004cad8     Qt5Widgets:Qt5Widgets.dll
 0004:00000adc       __imp_?repaint@QWidget@@QAEXXZ 1004cadc     Qt5Widgets:Qt5Widgets.dll
 0004:00000ae0       __imp_?setWindowFlags@QWidget@@QAEXV?$QFlags@W4WindowType@Qt@@@@@Z 1004cae0     Qt5Widgets:Qt5Widgets.dll
 0004:00000ae4       __imp_?setAttribute@QWidget@@QAEXW4WidgetAttribute@Qt@@_N@Z 1004cae4     Qt5Widgets:Qt5Widgets.dll
 0004:00000ae8       __imp_?setWindowTitle@QWidget@@QAEXABVQString@@@Z 1004cae8     Qt5Widgets:Qt5Widgets.dll
 0004:00000aec       __imp_?show@QWidget@@QAEXXZ 1004caec     Qt5Widgets:Qt5Widgets.dll
 0004:00000af0       __imp_??0QApplication@@QAE@AAHPAPADH@Z 1004caf0     Qt5Widgets:Qt5Widgets.dll
 0004:00000af4       __imp_??1QApplication@@UAE@XZ 1004caf4     Qt5Widgets:Qt5Widgets.dll
 0004:00000af8       __imp_?exec@QApplication@@SAHXZ 1004caf8     Qt5Widgets:Qt5Widgets.dll
 0004:00000afc       __imp_?setGeometry@QWidget@@QAEXABVQRect@@@Z 1004cafc     Qt5Widgets:Qt5Widgets.dll
 0004:00000b00       __imp_??0QDesktopWidget@@QAE@XZ 1004cb00     Qt5Widgets:Qt5Widgets.dll
 0004:00000b04       __imp_??1QDesktopWidget@@UAE@XZ 1004cb04     Qt5Widgets:Qt5Widgets.dll
 0004:00000b08       __imp_?availableGeometry@QDesktopWidget@@QBE?BVQRect@@H@Z 1004cb08     Qt5Widgets:Qt5Widgets.dll
 0004:00000b0c       __imp_?minimumWidth@QWidget@@QBEHXZ 1004cb0c     Qt5Widgets:Qt5Widgets.dll
 0004:00000b10       __imp_?minimumHeight@QWidget@@QBEHXZ 1004cb10     Qt5Widgets:Qt5Widgets.dll
 0004:00000b14       __imp_?maximumWidth@QWidget@@QBEHXZ 1004cb14     Qt5Widgets:Qt5Widgets.dll
 0004:00000b18       __imp_?maximumHeight@QWidget@@QBEHXZ 1004cb18     Qt5Widgets:Qt5Widgets.dll
 0004:00000b1c       __imp_?setMinimumSize@QWidget@@QAEXHH@Z 1004cb1c     Qt5Widgets:Qt5Widgets.dll
 0004:00000b20       __imp_?setMaximumSize@QWidget@@QAEXHH@Z 1004cb20     Qt5Widgets:Qt5Widgets.dll
 0004:00000b24       __imp_?setMinimumWidth@QWidget@@QAEXH@Z 1004cb24     Qt5Widgets:Qt5Widgets.dll
 0004:00000b28       __imp_?setMinimumHeight@QWidget@@QAEXH@Z 1004cb28     Qt5Widgets:Qt5Widgets.dll
 0004:00000b2c       __imp_?setMaximumWidth@QWidget@@QAEXH@Z 1004cb2c     Qt5Widgets:Qt5Widgets.dll
 0004:00000b30       __imp_?setMaximumHeight@QWidget@@QAEXH@Z 1004cb30     Qt5Widgets:Qt5Widgets.dll
 0004:00000b34       __imp_?mapToGlobal@QWidget@@QBE?AVQPoint@@ABV2@@Z 1004cb34     Qt5Widgets:Qt5Widgets.dll
 0004:00000b38       __imp_?setHidden@QWidget@@QAEX_N@Z 1004cb38     Qt5Widgets:Qt5Widgets.dll
 0004:00000b3c       __imp_?hide@QWidget@@QAEXXZ 1004cb3c     Qt5Widgets:Qt5Widgets.dll
 0004:00000b40       __imp_?showMinimized@QWidget@@QAEXXZ 1004cb40     Qt5Widgets:Qt5Widgets.dll
 0004:00000b44       __imp_?showMaximized@QWidget@@QAEXXZ 1004cb44     Qt5Widgets:Qt5Widgets.dll
 0004:00000b48       __imp_?close@QWidget@@QAE_NXZ 1004cb48     Qt5Widgets:Qt5Widgets.dll
 0004:00000b4c       __imp_?move@QWidget@@QAEXHH@Z 1004cb4c     Qt5Widgets:Qt5Widgets.dll
 0004:00000b50       __imp_?resize@QWidget@@QAEXABVQSize@@@Z 1004cb50     Qt5Widgets:Qt5Widgets.dll
 0004:00000b54       __imp_?isMinimized@QWidget@@QBE_NXZ 1004cb54     Qt5Widgets:Qt5Widgets.dll
 0004:00000b58       __imp_?isMaximized@QWidget@@QBE_NXZ 1004cb58     Qt5Widgets:Qt5Widgets.dll
 0004:00000b5c       __imp_?isFullScreen@QWidget@@QBE_NXZ 1004cb5c     Qt5Widgets:Qt5Widgets.dll
 0004:00000b60       __imp_?setSizePolicy@QWidget@@QAEXW4Policy@QSizePolicy@@0@Z 1004cb60     Qt5Widgets:Qt5Widgets.dll
 0004:00000b64       __imp_?setContentsMargins@QWidget@@QAEXHHHH@Z 1004cb64     Qt5Widgets:Qt5Widgets.dll
 0004:00000b68       __imp_??0QBoxLayout@@QAE@W4Direction@0@PAVQWidget@@@Z 1004cb68     Qt5Widgets:Qt5Widgets.dll
 0004:00000b6c       __imp_??1QBoxLayout@@UAE@XZ 1004cb6c     Qt5Widgets:Qt5Widgets.dll
 0004:00000b70       __imp_?addWidget@QBoxLayout@@QAEXPAVQWidget@@HV?$QFlags@W4AlignmentFlag@Qt@@@@@Z 1004cb70     Qt5Widgets:Qt5Widgets.dll
 0004:00000b74       __imp_??0QLabel@@QAE@PAVQWidget@@V?$QFlags@W4WindowType@Qt@@@@@Z 1004cb74     Qt5Widgets:Qt5Widgets.dll
 0004:00000b78       __imp_??1QLabel@@UAE@XZ    1004cb78     Qt5Widgets:Qt5Widgets.dll
 0004:00000b7c       __imp_?setAlignment@QLabel@@QAEXV?$QFlags@W4AlignmentFlag@Qt@@@@@Z 1004cb7c     Qt5Widgets:Qt5Widgets.dll
 0004:00000b80       __imp_?setScaledContents@QLabel@@QAEX_N@Z 1004cb80     Qt5Widgets:Qt5Widgets.dll
 0004:00000b84       __imp_?setMovie@QLabel@@QAEXPAVQMovie@@@Z 1004cb84     Qt5Widgets:Qt5Widgets.dll
 0004:00000b88       __imp_?accept@QDialog@@UAEXXZ 1004cb88     Qt5Widgets:Qt5Widgets.dll
 0004:00000b8c       __imp_?addItem@QBoxLayout@@UAEXPAVQLayoutItem@@@Z 1004cb8c     Qt5Widgets:Qt5Widgets.dll
 0004:00000b90       __imp_?changeEvent@QLabel@@MAEXPAVQEvent@@@Z 1004cb90     Qt5Widgets:Qt5Widgets.dll
 0004:00000b94       __imp_?childEvent@QLayout@@MAEXPAVQChildEvent@@@Z 1004cb94     Qt5Widgets:Qt5Widgets.dll
 0004:00000b98       __imp_?closeEvent@QDialog@@MAEXPAVQCloseEvent@@@Z 1004cb98     Qt5Widgets:Qt5Widgets.dll
 0004:00000b9c       __imp_?contextMenuEvent@QDialog@@MAEXPAVQContextMenuEvent@@@Z 1004cb9c     Qt5Widgets:Qt5Widgets.dll
 0004:00000ba0       __imp_?contextMenuEvent@QLabel@@MAEXPAVQContextMenuEvent@@@Z 1004cba0     Qt5Widgets:Qt5Widgets.dll
 0004:00000ba4       __imp_?controlTypes@QLayout@@UBE?AV?$QFlags@W4ControlType@QSizePolicy@@@@XZ 1004cba4     Qt5Widgets:Qt5Widgets.dll
 0004:00000ba8       __imp_?count@QBoxLayout@@UBEHXZ 1004cba8     Qt5Widgets:Qt5Widgets.dll
 0004:00000bac       __imp_?event@QLabel@@MAE_NPAVQEvent@@@Z 1004cbac     Qt5Widgets:Qt5Widgets.dll
 0004:00000bb0       __imp_?eventFilter@QDialog@@MAE_NPAVQObject@@PAVQEvent@@@Z 1004cbb0     Qt5Widgets:Qt5Widgets.dll
 0004:00000bb4       __imp_?exec@QDialog@@UAEHXZ 1004cbb4     Qt5Widgets:Qt5Widgets.dll
 0004:00000bb8       __imp_?expandingDirections@QBoxLayout@@UBE?AV?$QFlags@W4Orientation@Qt@@@@XZ 1004cbb8     Qt5Widgets:Qt5Widgets.dll
 0004:00000bbc       __imp_?focusInEvent@QLabel@@MAEXPAVQFocusEvent@@@Z 1004cbbc     Qt5Widgets:Qt5Widgets.dll
 0004:00000bc0       __imp_?focusNextPrevChild@QLabel@@MAE_N_N@Z 1004cbc0     Qt5Widgets:Qt5Widgets.dll
 0004:00000bc4       __imp_?focusOutEvent@QLabel@@MAEXPAVQFocusEvent@@@Z 1004cbc4     Qt5Widgets:Qt5Widgets.dll
 0004:00000bc8       __imp_?geometry@QLayout@@UBE?AVQRect@@XZ 1004cbc8     Qt5Widgets:Qt5Widgets.dll
 0004:00000bcc       __imp_?hasHeightForWidth@QBoxLayout@@UBE_NXZ 1004cbcc     Qt5Widgets:Qt5Widgets.dll
 0004:00000bd0       __imp_?heightForWidth@QBoxLayout@@UBEHH@Z 1004cbd0     Qt5Widgets:Qt5Widgets.dll
 0004:00000bd4       __imp_?heightForWidth@QLabel@@UBEHH@Z 1004cbd4     Qt5Widgets:Qt5Widgets.dll
 0004:00000bd8       __imp_?indexOf@QLayout@@UBEHPAVQWidget@@@Z 1004cbd8     Qt5Widgets:Qt5Widgets.dll
 0004:00000bdc       __imp_?invalidate@QBoxLayout@@UAEXXZ 1004cbdc     Qt5Widgets:Qt5Widgets.dll
 0004:00000be0       __imp_?itemAt@QBoxLayout@@UBEPAVQLayoutItem@@H@Z 1004cbe0     Qt5Widgets:Qt5Widgets.dll
 0004:00000be4       __imp_?isEmpty@QLayout@@UBE_NXZ 1004cbe4     Qt5Widgets:Qt5Widgets.dll
 0004:00000be8       __imp_?keyPressEvent@QDialog@@MAEXPAVQKeyEvent@@@Z 1004cbe8     Qt5Widgets:Qt5Widgets.dll
 0004:00000bec       __imp_?keyPressEvent@QLabel@@MAEXPAVQKeyEvent@@@Z 1004cbec     Qt5Widgets:Qt5Widgets.dll
 0004:00000bf0       __imp_?layout@QLayout@@UAEPAV1@XZ 1004cbf0     Qt5Widgets:Qt5Widgets.dll
 0004:00000bf4       __imp_?maximumSize@QBoxLayout@@UBE?AVQSize@@XZ 1004cbf4     Qt5Widgets:Qt5Widgets.dll
 0004:00000bf8       __imp_?metaObject@QBoxLayout@@UBEPBUQMetaObject@@XZ 1004cbf8     Qt5Widgets:Qt5Widgets.dll
 0004:00000bfc       __imp_?metaObject@QLabel@@UBEPBUQMetaObject@@XZ 1004cbfc     Qt5Widgets:Qt5Widgets.dll
 0004:00000c00       __imp_?minimumHeightForWidth@QBoxLayout@@UBEHH@Z 1004cc00     Qt5Widgets:Qt5Widgets.dll
 0004:00000c04       __imp_?metaObject@QMenu@@UBEPBUQMetaObject@@XZ 1004cc04     Qt5Widgets:Qt5Widgets.dll
 0004:00000c08       __imp_?minimumSize@QBoxLayout@@UBE?AVQSize@@XZ 1004cc08     Qt5Widgets:Qt5Widgets.dll
 0004:00000c0c       __imp_?sizeHint@QBoxLayout@@UBE?AVQSize@@XZ 1004cc0c     Qt5Widgets:Qt5Widgets.dll
 0004:00000c10       __imp_?sizeHint@QDialog@@UBE?AVQSize@@XZ 1004cc10     Qt5Widgets:Qt5Widgets.dll
 0004:00000c14       __imp_?sizeHint@QLabel@@UBE?AVQSize@@XZ 1004cc14     Qt5Widgets:Qt5Widgets.dll
 0004:00000c18       __imp_?spacerItem@QLayoutItem@@UAEPAVQSpacerItem@@XZ 1004cc18     Qt5Widgets:Qt5Widgets.dll
 0004:00000c1c       __imp_?takeAt@QBoxLayout@@UAEPAVQLayoutItem@@H@Z 1004cc1c     Qt5Widgets:Qt5Widgets.dll
 0004:00000c20       __imp_?widget@QLayoutItem@@UAEPAVQWidget@@XZ 1004cc20     Qt5Widgets:Qt5Widgets.dll
 0004:00000c24       __imp_?setWindowIcon@QWidget@@QAEXABVQIcon@@@Z 1004cc24     Qt5Widgets:Qt5Widgets.dll
 0004:00000c28       __imp_?qt_metacall@QWidget@@UAEHW4Call@QMetaObject@@HPAPAX@Z 1004cc28     Qt5Widgets:Qt5Widgets.dll
 0004:00000c2c       __imp_?staticMetaObject@QWidget@@2UQMetaObject@@B 1004cc2c     Qt5Widgets:Qt5Widgets.dll
 0004:00000c30       __imp_?getSaveFileName@QFileDialog@@SA?AVQString@@PAVQWidget@@ABV2@11PAV2@V?$QFlags@W4Option@QFileDialog@@@@@Z 1004cc30     Qt5Widgets:Qt5Widgets.dll
 0004:00000c34       __imp_??0QWidget@@QAE@PAV0@V?$QFlags@W4WindowType@Qt@@@@@Z 1004cc34     Qt5Widgets:Qt5Widgets.dll
 0004:00000c38       __imp_??1QWidget@@UAE@XZ   1004cc38     Qt5Widgets:Qt5Widgets.dll
 0004:00000c3c       __imp_?setParent@QWidget@@QAEXPAV1@@Z 1004cc3c     Qt5Widgets:Qt5Widgets.dll
 0004:00000c40       __imp_?inputMethodQuery@QWidget@@UBE?AVQVariant@@W4InputMethodQuery@Qt@@@Z 1004cc40     Qt5Widgets:Qt5Widgets.dll
 0004:00000c44       __imp_?inputMethodEvent@QWidget@@MAEXPAVQInputMethodEvent@@@Z 1004cc44     Qt5Widgets:Qt5Widgets.dll
 0004:00000c48       __imp_?initPainter@QWidget@@MBEXPAVQPainter@@@Z 1004cc48     Qt5Widgets:Qt5Widgets.dll
 0004:00000c4c       __imp_?hideEvent@QWidget@@MAEXPAVQHideEvent@@@Z 1004cc4c     Qt5Widgets:Qt5Widgets.dll
 0004:00000c50       __imp_?hideEvent@QMenu@@MAEXPAVQHideEvent@@@Z 1004cc50     Qt5Widgets:Qt5Widgets.dll
 0004:00000c54       __imp_?heightForWidth@QWidget@@UBEHH@Z 1004cc54     Qt5Widgets:Qt5Widgets.dll
 0004:00000c58       __imp_?hasHeightForWidth@QWidget@@UBE_NXZ 1004cc58     Qt5Widgets:Qt5Widgets.dll
 0004:00000c5c       __imp_?focusOutEvent@QWidget@@MAEXPAVQFocusEvent@@@Z 1004cc5c     Qt5Widgets:Qt5Widgets.dll
 0004:00000c60       __imp_?focusNextPrevChild@QWidget@@MAE_N_N@Z 1004cc60     Qt5Widgets:Qt5Widgets.dll
 0004:00000c64       __imp_?focusNextPrevChild@QMenu@@MAE_N_N@Z 1004cc64     Qt5Widgets:Qt5Widgets.dll
 0004:00000c68       __imp_?focusInEvent@QWidget@@MAEXPAVQFocusEvent@@@Z 1004cc68     Qt5Widgets:Qt5Widgets.dll
 0004:00000c6c       __imp_?event@QWidget@@MAE_NPAVQEvent@@@Z 1004cc6c     Qt5Widgets:Qt5Widgets.dll
 0004:00000c70       __imp_?event@QSystemTrayIcon@@MAE_NPAVQEvent@@@Z 1004cc70     Qt5Widgets:Qt5Widgets.dll
 0004:00000c74       __imp_?event@QMenu@@MAE_NPAVQEvent@@@Z 1004cc74     Qt5Widgets:Qt5Widgets.dll
 0004:00000c78       __imp_?event@QAction@@MAE_NPAVQEvent@@@Z 1004cc78     Qt5Widgets:Qt5Widgets.dll
 0004:00000c7c       __imp_?enterEvent@QWidget@@MAEXPAVQEvent@@@Z 1004cc7c     Qt5Widgets:Qt5Widgets.dll
 0004:00000c80       __imp_?enterEvent@QMenu@@MAEXPAVQEvent@@@Z 1004cc80     Qt5Widgets:Qt5Widgets.dll
 0004:00000c84       __imp_?dropEvent@QWidget@@MAEXPAVQDropEvent@@@Z 1004cc84     Qt5Widgets:Qt5Widgets.dll
 0004:00000c88       __imp_?dragMoveEvent@QWidget@@MAEXPAVQDragMoveEvent@@@Z 1004cc88     Qt5Widgets:Qt5Widgets.dll
 0004:00000c8c       __imp_?dragLeaveEvent@QWidget@@MAEXPAVQDragLeaveEvent@@@Z 1004cc8c     Qt5Widgets:Qt5Widgets.dll
 0004:00000c90       __imp_?dragEnterEvent@QWidget@@MAEXPAVQDragEnterEvent@@@Z 1004cc90     Qt5Widgets:Qt5Widgets.dll
 0004:00000c94       __imp_?devType@QWidget@@UBEHXZ 1004cc94     Qt5Widgets:Qt5Widgets.dll
 0004:00000c98       __imp_?contextMenuEvent@QWidget@@MAEXPAVQContextMenuEvent@@@Z 1004cc98     Qt5Widgets:Qt5Widgets.dll
 0004:00000c9c       __imp_?closeEvent@QWidget@@MAEXPAVQCloseEvent@@@Z 1004cc9c     Qt5Widgets:Qt5Widgets.dll
 0004:00000ca0       __imp_?changeEvent@QWidget@@MAEXPAVQEvent@@@Z 1004cca0     Qt5Widgets:Qt5Widgets.dll
 0004:00000ca4       __imp_?changeEvent@QMenu@@MAEXPAVQEvent@@@Z 1004cca4     Qt5Widgets:Qt5Widgets.dll
 0004:00000ca8       __imp_?actionEvent@QWidget@@MAEXPAVQActionEvent@@@Z 1004cca8     Qt5Widgets:Qt5Widgets.dll
 0004:00000cac       __imp_?actionEvent@QMenu@@MAEXPAVQActionEvent@@@Z 1004ccac     Qt5Widgets:Qt5Widgets.dll
 0004:00000cb0       __imp_?addSeparator@QMenu@@QAEPAVQAction@@XZ 1004ccb0     Qt5Widgets:Qt5Widgets.dll
 0004:00000cb4       __imp_??1QMenu@@UAE@XZ     1004ccb4     Qt5Widgets:Qt5Widgets.dll
 0004:00000cb8       __imp_??0QMenu@@QAE@PAVQWidget@@@Z 1004ccb8     Qt5Widgets:Qt5Widgets.dll
 0004:00000cbc       __imp_?show@QSystemTrayIcon@@QAEXXZ 1004ccbc     Qt5Widgets:Qt5Widgets.dll
 0004:00000cc0       __imp_?setToolTip@QSystemTrayIcon@@QAEXABVQString@@@Z 1004ccc0     Qt5Widgets:Qt5Widgets.dll
 0004:00000cc4       __imp_?setIcon@QSystemTrayIcon@@QAEXABVQIcon@@@Z 1004ccc4     Qt5Widgets:Qt5Widgets.dll
 0004:00000cc8       __imp_?setContextMenu@QSystemTrayIcon@@QAEXPAVQMenu@@@Z 1004ccc8     Qt5Widgets:Qt5Widgets.dll
 0004:00000ccc       __imp_??1QSystemTrayIcon@@UAE@XZ 1004cccc     Qt5Widgets:Qt5Widgets.dll
 0004:00000cd0       __imp_??0QSystemTrayIcon@@QAE@PAVQObject@@@Z 1004ccd0     Qt5Widgets:Qt5Widgets.dll
 0004:00000cd4       __imp_?setIcon@QAction@@QAEXABVQIcon@@@Z 1004ccd4     Qt5Widgets:Qt5Widgets.dll
 0004:00000cd8       __imp_??1QAction@@UAE@XZ   1004ccd8     Qt5Widgets:Qt5Widgets.dll
 0004:00000cdc       __imp_??0QAction@@QAE@ABVQString@@PAVQObject@@@Z 1004ccdc     Qt5Widgets:Qt5Widgets.dll
 0004:00000ce0       __imp_?addAction@QWidget@@QAEXPAVQAction@@@Z 1004cce0     Qt5Widgets:Qt5Widgets.dll
 0004:00000ce4       __imp_?qt_metacast@QWidget@@UAEPAXPBD@Z 1004cce4     Qt5Widgets:Qt5Widgets.dll
 0004:00000ce8       \177Qt5Widgets_NULL_THUNK_DATA 1004cce8     Qt5Widgets:Qt5Widgets.dll
 0004:00000da8       __imp__SetWindowPos@28     1004cda8     user32:USER32.dll
 0004:00000dac       __imp__ShowWindow@8        1004cdac     user32:USER32.dll
 0004:00000db0       __imp__SendMessageW@16     1004cdb0     user32:USER32.dll
 0004:00000db4       __imp__SetWindowLongW@12   1004cdb4     user32:USER32.dll
 0004:00000db8       __imp__ReleaseCapture@0    1004cdb8     user32:USER32.dll
 0004:00000dbc       \177USER32_NULL_THUNK_DATA 1004cdbc     user32:USER32.dll
 0004:00000dec       __IMPORT_DESCRIPTOR_Qt5Widgets 1004cdec     Qt5Widgets:Qt5Widgets.dll
 0004:00000e00       __IMPORT_DESCRIPTOR_Qt5Network 1004ce00     Qt5Network:Qt5Network.dll
 0004:00000e14       __IMPORT_DESCRIPTOR_Qt5Core 1004ce14     Qt5Core:Qt5Core.dll
 0004:00000e28       __IMPORT_DESCRIPTOR_Qt5Gui 1004ce28     Qt5Gui:Qt5Gui.dll
 0004:00000e3c       __IMPORT_DESCRIPTOR_Qt5WebKit 1004ce3c     Qt5WebKit:Qt5WebKit.dll
 0004:00000e50       __IMPORT_DESCRIPTOR_Qt5WebKitWidgets 1004ce50     Qt5WebKitWidgets:Qt5WebKitWidgets.dll
 0004:00000e64       __IMPORT_DESCRIPTOR_Qt5Sql 1004ce64     Qt5Sql:Qt5Sql.dll
 0004:00000e78       __IMPORT_DESCRIPTOR_Qt5PrintSupport 1004ce78     Qt5PrintSupport:Qt5PrintSupport.dll
 0004:00000e8c       __IMPORT_DESCRIPTOR_USER32 1004ce8c     user32:USER32.dll
 0004:00000ea0       __IMPORT_DESCRIPTOR_MSVCP120 1004cea0     msvcprt:MSVCP120.dll
 0004:00000eb4       __IMPORT_DESCRIPTOR_MSVCR120 1004ceb4     MSVCRT:MSVCR120.dll
 0004:00000ec8       __IMPORT_DESCRIPTOR_KERNEL32 1004cec8     kernel32:KERNEL32.dll
 0004:00000edc       __NULL_IMPORT_DESCRIPTOR   1004cedc     Qt5Widgets:Qt5Widgets.dll

 entry point at        0001:0002d396

